ARM Linker, 5.03 [Build 76] [MDK-ARM Professional]

==============================================================================

Section Cross References

    scopemain.o(.text) refers to memseta.o(.text) for __aeabi_memclr4
    scopemain.o(.text) refers to storagemanagement.o(.text) for Flash_Read_Param
    scopemain.o(.text) refers to printf8.o(i.__0printf$8) for __2printf
    scopemain.o(.text) refers to scope_eval.o(.text) for EVAL_OutputSet
    scopemain.o(.text) refers to scope_it.o(.text) for IT_SYS_DlyMs
    scopemain.o(.text) refers to protocol.o(.text) for PL_InitProtocol
    scopemain.o(.text) refers to samplingport.o(.text) for SPG_InitProtocol
    scopemain.o(.text) refers to stm32f4x7_eth_bsp.o(.text) for ETH_BSP_Config
    scopemain.o(.text) refers to netconf.o(.text) for LwIP_Init
    scopemain.o(.text) refers to udp_echoserver.o(.text) for udp_echoserver_init
    scopemain.o(.text) refers to systemscope.o(.text) for Iint_SysParam
    scopemain.o(.text) refers to interfacescope.o(.text) for HW_LWIP_MainLine
    scopemain.o(.text) refers to storagemanagement.o(.bss) for g_Record_Param
    scopemain.o(.text) refers to processscope.o(.data) for g_AirLight_Flag
    system_stm32f4xx.o(.text) refers to stm32f4xx_rcc.o(.text) for RCC_DeInit
    system_stm32f4xx.o(.text) refers to system_stm32f4xx.o(.data) for SystemCoreClock
    startup_stm32f40_41xxx.o(RESET) refers to startup_stm32f40_41xxx.o(STACK) for __initial_sp
    startup_stm32f40_41xxx.o(RESET) refers to startup_stm32f40_41xxx.o(.text) for Reset_Handler
    startup_stm32f40_41xxx.o(RESET) refers to scope_it.o(.text) for SysTick_Handler
    startup_stm32f40_41xxx.o(RESET) refers to driver.o(.text) for DMA2_Stream0_IRQHandler
    startup_stm32f40_41xxx.o(.text) refers to system_stm32f4xx.o(.text) for SystemInit
    startup_stm32f40_41xxx.o(.text) refers to entry.o(.ARM.Collect$$$$00000000) for __main
    systemscope.o(.text) refers to memseta.o(.text) for __aeabi_memclr4
    systemscope.o(.text) refers to processscope.o(.bss) for g_CRP_Data
    systemscope.o(.text) refers to systemscope.o(.data) for g_nError
    systemscope.o(.text) refers to systemscope.o(.bss) for g_tAxisPosStatus
    systemscope.o(.text) refers to systemscope.o(.constdata) for m_nConstBitsMap
    processscope.o(.text) refers to scope_it.o(.text) for IT_LIST_GetTicks
    processscope.o(.text) refers to protocol.o(.text) for PL_NET_SendResult
    processscope.o(.text) refers to processscope.o(.data) for g_Udp_Count
    processscope.o(.text) refers to printf8.o(i.__0printf$8) for __2printf
    processscope.o(.text) refers to interfacescope.o(.text) for HW_LWIP_Working_Recv_Handle
    processscope.o(.text) refers to netconf.o(.text) for LwIP_Periodic_Handle
    processscope.o(.text) refers to systemscope.o(.bss) for g_tAxisPosStatus
    processscope.o(.text) refers to processscope.o(.constdata) for .constdata
    processscope.o(.text) refers to storagemanagement.o(.bss) for g_Record_Param
    processscope.o(.text) refers to storagemanagement.o(.text) for Flash_Write_Param
    processscope.o(.text) refers to memseta.o(.text) for __aeabi_memclr4
    processscope.o(.text) refers to driver.o(.text) for Get_Micro_OC_Status
    processscope.o(.text) refers to processscope.o(.bss) for g_CRP_Data
    processscope.o(.text) refers to stm32f4xx_adc.o(.text) for ADC_DMACmd
    processscope.o(.text) refers to stm32f4xx_dma.o(.text) for DMA_Cmd
    processscope.o(.text) refers to printf8.o(i.__0sprintf$8) for __2sprintf
    processscope.o(.text) refers to protocol.o(.bss) for g_achFbkSdLogBuf
    processscope.o(.text) refers to udp_echoserver.o(.text) for udp_echoserver_senddata
    processscope.o(.text) refers to systemscope.o(.text) for SYS_HasError
    processscope.o(.text) refers to strncpy.o(.text) for strncpy
    protocol.o(.text) refers to buffercircle.o(.text) for BUF_Send_Init
    protocol.o(.text) refers to netbuffercircle.o(.text) for NET_BUF_Send_Init
    protocol.o(.text) refers to stm32f4xx_usart.o(.text) for USART_ITConfig
    protocol.o(.text) refers to udp_echoserver.o(.text) for udp_echoserver_senddata
    protocol.o(.text) refers to memcpya.o(.text) for __aeabi_memcpy
    protocol.o(.text) refers to strlen.o(.text) for strlen
    protocol.o(.text) refers to protocol.o(.data) for m_NET_tRecvBufStatus
    protocol.o(.text) refers to protocol.o(.bss) for g_NET_achCmdRvBuf
    interfacescope.o(.text) refers to scope_move.o(.text) for MV_InitPara
    interfacescope.o(.text) refers to fpga.o(.text) for FPGA_ReadBuffer
    interfacescope.o(.text) refers to processscope.o(.text) for moto_work_stat_2
    interfacescope.o(.text) refers to scope_it.o(.text) for IT_SYS_DlyMs
    interfacescope.o(.text) refers to printf8.o(i.__0printf$8) for __2printf
    interfacescope.o(.text) refers to systemscope.o(.bss) for g_tAxisPosStatus
    interfacescope.o(.text) refers to scope_move.o(.bss) for g_atMotorPara
    interfacescope.o(.text) refers to storagemanagement.o(.bss) for g_Record_Param
    interfacescope.o(.text) refers to driver.o(.text) for Valve_Liquid_Exec
    interfacescope.o(.text) refers to dfltui.o(.text) for __aeabi_ui2d
    interfacescope.o(.text) refers to dmul.o(.text) for __aeabi_dmul
    interfacescope.o(.text) refers to cdrcmple.o(.text) for __aeabi_cdrcmple
    interfacescope.o(.text) refers to dadd.o(.text) for __aeabi_drsub
    interfacescope.o(.text) refers to dfixi.o(.text) for __aeabi_d2iz
    interfacescope.o(.text) refers to interfacescope.o(.constdata) for .constdata
    interfacescope.o(.text) refers to interfacescope.o(.data) for s_nK
    interfacescope.o(.text) refers to dfixui.o(.text) for __aeabi_d2uiz
    interfacescope.o(.text) refers to udp_echoserver.o(.text) for udp_echoserver_senddata
    interfacescope.o(.text) refers to netconf.o(.text) for LwIP_Periodic_Handle
    interfacescope.o(.text) refers to interfacescope.o(.bss) for s_anBufNet
    interfacescope.o(.text) refers to samplingport.o(.text) for SPG_IsRecvCommandValid
    interfacescope.o(.text) refers to stm32f4x7_eth.o(.text) for ETH_CheckFrameReceived
    interfacescope.o(.text) refers to protocol.o(.text) for PL_NET_CheckingFrame
    interfacescope.o(.text) refers to samplingport.o(.bss) for g_SPG_achCmdRvBuf
    interfacescope.o(.text) refers to processscope.o(.data) for g_Frame_Count
    interfacescope.o(.text) refers to protocol.o(.bss) for g_NET_achCmdRvBuf
    interfacescope.o(.text) refers to memseta.o(.text) for __aeabi_memclr
    interfacescope.o(.text) refers to processscope.o(.bss) for ADC1_Status
    interfacescope.o(.text) refers to samplebuffercircle.o(.text) for SPG_Recv_GetChar
    samplingport.o(.text) refers to samplebuffercircle.o(.text) for SPG_Send_Init
    samplingport.o(.text) refers to stm32f4xx_usart.o(.text) for USART_ITConfig
    samplingport.o(.text) refers to samplingport.o(.data) for m_tRecvBufStatus
    samplingport.o(.text) refers to samplingport.o(.bss) for g_SPG_achCmdRvBuf
    storagemanagement.o(.text) refers to stm32f4xx_flash.o(.text) for FLASH_Unlock
    stm32f4x7_eth.o(.text) refers to stm32f4xx_rcc.o(.text) for RCC_AHB1PeriphResetCmd
    stm32f4x7_eth.o(.text) refers to scope_eval.o(.text) for assert_failed
    stm32f4x7_eth.o(.text) refers to scope_it.o(.text) for IT_SYS_DlyMs
    stm32f4x7_eth.o(.text) refers to stm32f4x7_eth.o(.data) for DMARxDescToGet
    stm32f4x7_eth.o(.text) refers to stm32f4x7_eth.o(.bss) for RX_Frame_Descriptor
    misc.o(.text) refers to scope_eval.o(.text) for assert_failed
    stm32f4xx_wwdg.o(.text) refers to stm32f4xx_rcc.o(.text) for RCC_APB1PeriphResetCmd
    stm32f4xx_wwdg.o(.text) refers to scope_eval.o(.text) for assert_failed
    stm32f4xx_adc.o(.text) refers to stm32f4xx_rcc.o(.text) for RCC_APB2PeriphResetCmd
    stm32f4xx_adc.o(.text) refers to scope_eval.o(.text) for assert_failed
    stm32f4xx_can.o(.text) refers to scope_eval.o(.text) for assert_failed
    stm32f4xx_can.o(.text) refers to stm32f4xx_rcc.o(.text) for RCC_APB1PeriphResetCmd
    stm32f4xx_cryp.o(.text) refers to stm32f4xx_rcc.o(.text) for RCC_AHB2PeriphResetCmd
    stm32f4xx_cryp.o(.text) refers to scope_eval.o(.text) for assert_failed
    stm32f4xx_cryp_aes.o(.text) refers to stm32f4xx_cryp.o(.text) for CRYP_KeyStructInit
    stm32f4xx_cryp_des.o(.text) refers to stm32f4xx_cryp.o(.text) for CRYP_KeyStructInit
    stm32f4xx_cryp_tdes.o(.text) refers to stm32f4xx_cryp.o(.text) for CRYP_KeyStructInit
    stm32f4xx_dac.o(.text) refers to stm32f4xx_rcc.o(.text) for RCC_APB1PeriphResetCmd
    stm32f4xx_dac.o(.text) refers to scope_eval.o(.text) for assert_failed
    stm32f4xx_dbgmcu.o(.text) refers to scope_eval.o(.text) for assert_failed
    stm32f4xx_dcmi.o(.text) refers to scope_eval.o(.text) for assert_failed
    stm32f4xx_dma2d.o(.text) refers to stm32f4xx_rcc.o(.text) for RCC_AHB1PeriphResetCmd
    stm32f4xx_dma2d.o(.text) refers to scope_eval.o(.text) for assert_failed
    stm32f4xx_dma.o(.text) refers to scope_eval.o(.text) for assert_failed
    stm32f4xx_exti.o(.text) refers to scope_eval.o(.text) for assert_failed
    stm32f4xx_flash.o(.text) refers to scope_eval.o(.text) for assert_failed
    stm32f4xx_fsmc.o(.text) refers to scope_eval.o(.text) for assert_failed
    stm32f4xx_fsmc.o(.text) refers to stm32f4xx_fsmc.o(.constdata) for FSMC_DefaultTimingStruct
    stm32f4xx_gpio.o(.text) refers to scope_eval.o(.text) for assert_failed
    stm32f4xx_gpio.o(.text) refers to stm32f4xx_rcc.o(.text) for RCC_AHB1PeriphResetCmd
    stm32f4xx_hash.o(.text) refers to stm32f4xx_rcc.o(.text) for RCC_AHB2PeriphResetCmd
    stm32f4xx_hash.o(.text) refers to scope_eval.o(.text) for assert_failed
    stm32f4xx_hash_md5.o(.text) refers to stm32f4xx_hash.o(.text) for HASH_DeInit
    stm32f4xx_hash_sha1.o(.text) refers to stm32f4xx_hash.o(.text) for HASH_DeInit
    stm32f4xx_i2c.o(.text) refers to scope_eval.o(.text) for assert_failed
    stm32f4xx_i2c.o(.text) refers to stm32f4xx_rcc.o(.text) for RCC_APB1PeriphResetCmd
    stm32f4xx_iwdg.o(.text) refers to scope_eval.o(.text) for assert_failed
    stm32f4xx_ltdc.o(.text) refers to stm32f4xx_rcc.o(.text) for RCC_APB2PeriphResetCmd
    stm32f4xx_ltdc.o(.text) refers to scope_eval.o(.text) for assert_failed
    stm32f4xx_pwr.o(.text) refers to stm32f4xx_rcc.o(.text) for RCC_APB1PeriphResetCmd
    stm32f4xx_pwr.o(.text) refers to scope_eval.o(.text) for assert_failed
    stm32f4xx_rcc.o(.text) refers to scope_eval.o(.text) for assert_failed
    stm32f4xx_rcc.o(.text) refers to stm32f4xx_rcc.o(.data) for APBAHBPrescTable
    stm32f4xx_rng.o(.text) refers to stm32f4xx_rcc.o(.text) for RCC_AHB2PeriphResetCmd
    stm32f4xx_rng.o(.text) refers to scope_eval.o(.text) for assert_failed
    stm32f4xx_rtc.o(.text) refers to scope_eval.o(.text) for assert_failed
    stm32f4xx_sai.o(.text) refers to scope_eval.o(.text) for assert_failed
    stm32f4xx_sai.o(.text) refers to stm32f4xx_rcc.o(.text) for RCC_APB2PeriphResetCmd
    stm32f4xx_sdio.o(.text) refers to stm32f4xx_rcc.o(.text) for RCC_APB2PeriphResetCmd
    stm32f4xx_sdio.o(.text) refers to scope_eval.o(.text) for assert_failed
    stm32f4xx_spi.o(.text) refers to scope_eval.o(.text) for assert_failed
    stm32f4xx_spi.o(.text) refers to stm32f4xx_rcc.o(.text) for RCC_APB2PeriphResetCmd
    stm32f4xx_syscfg.o(.text) refers to stm32f4xx_rcc.o(.text) for RCC_APB2PeriphResetCmd
    stm32f4xx_syscfg.o(.text) refers to scope_eval.o(.text) for assert_failed
    stm32f4xx_tim.o(.text) refers to scope_eval.o(.text) for assert_failed
    stm32f4xx_tim.o(.text) refers to stm32f4xx_rcc.o(.text) for RCC_APB2PeriphResetCmd
    stm32f4xx_usart.o(.text) refers to scope_eval.o(.text) for assert_failed
    stm32f4xx_usart.o(.text) refers to stm32f4xx_rcc.o(.text) for RCC_APB2PeriphResetCmd
    fpga.o(.text) refers to stm32f4xx_rcc.o(.text) for RCC_AHB1PeriphClockCmd
    fpga.o(.text) refers to stm32f4xx_gpio.o(.text) for GPIO_Init
    fpga.o(.text) refers to stm32f4xx_fsmc.o(.text) for FSMC_NORSRAMStructInit
    fpga.o(.text) refers to scope_it.o(.text) for IT_SYS_DlyMs
    fpga.o(.text) refers to interfacescope.o(.text) for HW_DIR_Ctrl
    scope_it.o(.text) refers to stm32f4xx_tim.o(.text) for TIM_GetITStatus
    scope_it.o(.text) refers to samplingport.o(.text) for SPG_IsrTime
    scope_it.o(.text) refers to driver.o(.text) for HW_Get_ADC_CRP
    scope_it.o(.text) refers to printf8.o(i.__0printf$8) for __2printf
    scope_it.o(.text) refers to scope_eval.o(.text) for EVAL_OutputToggle
    scope_it.o(.text) refers to protocol.o(.text) for PL_COM_IsrHandling
    scope_it.o(.text) refers to scope_it.o(.data) for m_nSysTicks
    scope_it.o(.text) refers to processscope.o(.bss) for g_CRP_Data
    scope_eval.o(.text) refers to printf8.o(i.__0printf$8) for __2printf
    scope_eval.o(.text) refers to protocol.o(.text) for PL_COM_SendChar
    scope_eval.o(.text) refers to stm32f4xx_tim.o(.text) for TIM_DeInit
    scope_eval.o(.text) refers to stm32f4xx_rcc.o(.text) for RCC_APB1PeriphClockCmd
    scope_eval.o(.text) refers to misc.o(.text) for NVIC_Init
    scope_eval.o(.text) refers to stm32f4xx_gpio.o(.text) for GPIO_Init
    scope_eval.o(.text) refers to stm32f4xx_usart.o(.text) for USART_Init
    scope_eval.o(.text) refers to driver.o(.text) for ADC1_Init
    scope_eval.o(.text) refers to stm32f4xx_syscfg.o(.text) for SYSCFG_EXTILineConfig
    scope_eval.o(.text) refers to stm32f4xx_exti.o(.text) for EXTI_Init
    scope_eval.o(.text) refers to scope_eval.o(.constdata) for OUT_CLK
    scope_eval.o(.text) refers to system_stm32f4xx.o(.data) for SystemCoreClock
    scope_move.o(.text) refers to fpga.o(.text) for FPGA_WriteBuffer
    scope_move.o(.text) refers to scope_it.o(.text) for IT_SYS_SetDlyMs
    scope_move.o(.text) refers to scope_move.o(.bss) for g_atMotorPara
    scope_move.o(.text) refers to scope_move.o(.constdata) for m_acnDirNeg
    buffercircle.o(.text) refers to buffercircle.o(.data) for m_send_tBufStatus
    buffercircle.o(.text) refers to buffercircle.o(.bss) for m_send_achBufferCircle
    netbuffercircle.o(.text) refers to netbuffercircle.o(.data) for m_send_tBufStatus
    netbuffercircle.o(.text) refers to netbuffercircle.o(.bss) for m_send_achBufferCircle
    samplebuffercircle.o(.text) refers to samplebuffercircle.o(.data) for m_send_tBufStatus
    samplebuffercircle.o(.text) refers to samplebuffercircle.o(.bss) for m_send_achBufferCircle
    interruptbuffercircle.o(.text) refers to interruptbuffercircle.o(.data) for m_int_tBufStatus
    interruptbuffercircle.o(.text) refers to interruptbuffercircle.o(.bss) for m_int_achBufferCircle
    driver.o(.text) refers to stm32f4xx_rcc.o(.text) for RCC_AHB1PeriphClockCmd
    driver.o(.text) refers to stm32f4xx_dma.o(.text) for DMA_DeInit
    driver.o(.text) refers to misc.o(.text) for NVIC_Init
    driver.o(.text) refers to stm32f4xx_adc.o(.text) for ADC_DeInit
    driver.o(.text) refers to stm32f4xx_gpio.o(.text) for GPIO_Init
    driver.o(.text) refers to system_stm32f4xx.o(.data) for SystemCoreClock
    driver.o(.text) refers to processscope.o(.bss) for g_ADC1_Buffer
    driver.o(.text) refers to scope_it.o(.text) for IT_SYS_DlyMs
    driver.o(.text) refers to printf8.o(i.__0printf$8) for __2printf
    driver.o(.text) refers to stm32f4xx_syscfg.o(.text) for SYSCFG_EXTILineConfig
    driver.o(.text) refers to stm32f4xx_exti.o(.text) for EXTI_Init
    driver.o(.text) refers to stm32f4xx_tim.o(.text) for TIM_DeInit
    driver.o(.text) refers to driver.o(.data) for g_Elec_Status
    driver.o(.text) refers to driver.o(.constdata) for g_Turn_Motor_Table
    driver.o(.text) refers to processscope.o(.data) for g_Micro_Switch
    driver.o(.text) refers to stm32f4xx_dac.o(.text) for DAC_Init
    driver.o(.text) refers to stm32f4xx_spi.o(.text) for SPI_Init
    driver.o(.text) refers to interfacescope.o(.text) for HW_PUMP_Pulse
    driver.o(.text) refers to ad7799.o(.text) for ADC24Bit_Init
    ad7799.o(.text) refers to stm32f4xx_rcc.o(.text) for RCC_AHB1PeriphClockCmd
    ad7799.o(.text) refers to stm32f4xx_gpio.o(.text) for GPIO_Init
    ad7799.o(.text) refers to stm32f4xx_spi.o(.text) for SPI_Cmd
    ad7799.o(.text) refers to scope_it.o(.text) for IT_SYS_DlyMs
    ad7799.o(.text) refers to printf8.o(i.__0printf$8) for __2printf
    ethernetif.o(.text) refers to stm32f4x7_eth.o(.text) for ETH_MACAddressConfig
    ethernetif.o(.text) refers to memcpya.o(.text) for __aeabi_memcpy
    ethernetif.o(.text) refers to pbuf.o(.text) for pbuf_alloc
    ethernetif.o(.text) refers to stm32f4x7_eth.o(.bss) for Tx_Buff
    ethernetif.o(.text) refers to stm32f4x7_eth.o(.data) for DMATxDescToSet
    ethernetif.o(.text) refers to etharp.o(.text) for etharp_output
    etharp.o(.text) refers to pbuf.o(.text) for pbuf_free
    etharp.o(.text) refers to ip_addr.o(.text) for ip4_addr_isbroadcast
    etharp.o(.text) refers to etharp.o(.bss) for arp_table
    etharp.o(.text) refers to def.o(.text) for lwip_htons
    etharp.o(.text) refers to dhcp.o(.text) for dhcp_arp_reply
    etharp.o(.text) refers to memcmp.o(.text) for memcmp
    etharp.o(.text) refers to ip.o(.text) for ip_input
    etharp.o(.text) refers to etharp.o(.constdata) for ethzero
    etharp.o(.text) refers to etharp.o(.data) for etharp_cached_entry
    icmp.o(.text) refers to pbuf.o(.text) for pbuf_header
    icmp.o(.text) refers to ip_addr.o(.text) for ip4_addr_isbroadcast
    icmp.o(.text) refers to inet_chksum.o(.text) for inet_chksum_pbuf
    icmp.o(.text) refers to ip.o(.text) for ip_output_if
    icmp.o(.text) refers to memcpya.o(.text) for __aeabi_memcpy
    icmp.o(.text) refers to ip.o(.data) for current_iphdr_dest
    inet_chksum.o(.text) refers to def.o(.text) for lwip_htons
    ip.o(.text) refers to pbuf.o(.text) for pbuf_free
    ip.o(.text) refers to def.o(.text) for lwip_ntohs
    ip.o(.text) refers to ip_addr.o(.text) for ip4_addr_isbroadcast
    ip.o(.text) refers to ip_frag.o(.text) for ip_reass
    ip.o(.text) refers to raw.o(.text) for raw_input
    ip.o(.text) refers to udp.o(.text) for udp_input
    ip.o(.text) refers to tcp_in.o(.text) for tcp_input
    ip.o(.text) refers to icmp.o(.text) for icmp_input
    ip.o(.text) refers to netif.o(.data) for netif_list
    ip.o(.text) refers to ip.o(.data) for current_iphdr_dest
    ip_addr.o(.text) refers to def.o(.text) for lwip_htonl
    ip_addr.o(.text) refers to ip_addr.o(.bss) for str
    ip_frag.o(.text) refers to memp.o(.text) for memp_free
    ip_frag.o(.text) refers to memcpya.o(.text) for __aeabi_memcpy
    ip_frag.o(.text) refers to icmp.o(.text) for icmp_time_exceeded
    ip_frag.o(.text) refers to pbuf.o(.text) for pbuf_clen
    ip_frag.o(.text) refers to memseta.o(.text) for __aeabi_memclr4
    ip_frag.o(.text) refers to def.o(.text) for lwip_ntohs
    ip_frag.o(.text) refers to ip_frag.o(.data) for reassdatagrams
    ip_frag.o(.text) refers to inet_chksum.o(.text) for inet_chksum
    dhcp.o(.text) refers to pbuf.o(.text) for pbuf_free
    dhcp.o(.text) refers to def.o(.text) for lwip_htonl
    dhcp.o(.text) refers to udp.o(.text) for udp_sendto_if
    dhcp.o(.text) refers to netif.o(.text) for netif_set_down
    dhcp.o(.text) refers to etharp.o(.text) for etharp_query
    dhcp.o(.text) refers to dhcp.o(.data) for xid
    dhcp.o(.text) refers to ip_addr.o(.constdata) for ip_addr_broadcast
    dhcp.o(.text) refers to dhcp.o(.bss) for dhcp_rx_options_given
    dhcp.o(.text) refers to netif.o(.data) for netif_list
    dhcp.o(.text) refers to memseta.o(.text) for __aeabi_memclr4
    dhcp.o(.text) refers to mem.o(.text) for mem_free
    init.o(.text) refers to mem.o(.text) for mem_init
    init.o(.text) refers to memp.o(.text) for memp_init
    init.o(.text) refers to netif.o(.text) for netif_init
    init.o(.text) refers to udp.o(.text) for udp_init
    init.o(.text) refers to tcp.o(.text) for tcp_init
    mem.o(.text) refers to memseta.o(.text) for __aeabi_memclr
    mem.o(.text) refers to mem.o(.data) for ram
    mem.o(.text) refers to mem.o(.bss) for ram_heap
    memp.o(.text) refers to memp.o(.bss) for memp_memory
    memp.o(.text) refers to memp.o(.constdata) for memp_sizes
    netif.o(.text) refers to tcp.o(.text) for tcp_abort
    netif.o(.text) refers to etharp.o(.text) for etharp_cleanup_netif
    netif.o(.text) refers to dhcp.o(.text) for dhcp_network_changed
    netif.o(.text) refers to tcp.o(.data) for tcp_active_pcbs
    netif.o(.text) refers to netif.o(.data) for netif_num
    pbuf.o(.text) refers to memp.o(.text) for memp_free
    pbuf.o(.text) refers to mem.o(.text) for mem_free
    pbuf.o(.text) refers to memcpya.o(.text) for __aeabi_memcpy
    pbuf.o(.text) refers to strlen.o(.text) for strlen
    raw.o(.text) refers to pbuf.o(.text) for pbuf_header
    raw.o(.text) refers to ip.o(.text) for ip_route
    raw.o(.text) refers to memp.o(.text) for memp_free
    raw.o(.text) refers to memseta.o(.text) for __aeabi_memclr4
    raw.o(.text) refers to raw.o(.data) for raw_pcbs
    raw.o(.text) refers to ip.o(.data) for current_iphdr_dest
    tcp.o(.text) refers to pbuf.o(.text) for pbuf_free
    tcp.o(.text) refers to memp.o(.text) for memp_free
    tcp.o(.text) refers to tcp_out.o(.text) for tcp_zero_window_probe
    tcp.o(.text) refers to tcp.o(.data) for tcp_ticks
    tcp.o(.text) refers to tcp.o(.constdata) for tcp_persist_backoff
    tcp.o(.text) refers to timers.o(.text) for tcp_timer_needed
    tcp.o(.text) refers to ip.o(.text) for ip_route
    tcp.o(.text) refers to memseta.o(.text) for __aeabi_memclr4
    tcp.o(.constdata) refers to tcp.o(.conststring) for .conststring
    tcp.o(.constdata) refers to tcp.o(.data) for tcp_listen_pcbs
    tcp_in.o(.text) refers to tcp_out.o(.text) for tcp_rexmit_fast
    tcp_in.o(.text) refers to pbuf.o(.text) for pbuf_clen
    tcp_in.o(.text) refers to def.o(.text) for lwip_ntohs
    tcp_in.o(.text) refers to tcp.o(.text) for tcp_seg_free
    tcp_in.o(.text) refers to tcp_in.o(.data) for flags
    tcp_in.o(.text) refers to tcp.o(.data) for tcp_ticks
    tcp_in.o(.text) refers to tcp_in.o(.bss) for inseg
    tcp_in.o(.text) refers to timers.o(.text) for tcp_timer_needed
    tcp_in.o(.text) refers to ip.o(.data) for current_iphdr_src
    tcp_in.o(.text) refers to ip_addr.o(.text) for ip4_addr_isbroadcast
    tcp_in.o(.text) refers to memp.o(.text) for memp_free
    tcp_out.o(.text) refers to pbuf.o(.text) for pbuf_alloc
    tcp_out.o(.text) refers to def.o(.text) for lwip_htons
    tcp_out.o(.text) refers to memp.o(.text) for memp_malloc
    tcp_out.o(.text) refers to tcp.o(.text) for tcp_seg_free
    tcp_out.o(.text) refers to memcpya.o(.text) for __aeabi_memcpy
    tcp_out.o(.text) refers to ip.o(.text) for ip_output
    tcp_out.o(.text) refers to tcp.o(.data) for tcp_ticks
    tcp_out.o(.text) refers to tcp_in.o(.data) for tcp_input_pcb
    udp.o(.text) refers to pbuf.o(.text) for pbuf_header
    udp.o(.text) refers to ip_addr.o(.text) for ip4_addr_isbroadcast
    udp.o(.text) refers to def.o(.text) for lwip_ntohs
    udp.o(.text) refers to icmp.o(.text) for icmp_dest_unreach
    udp.o(.text) refers to ip.o(.text) for ip_output_if
    udp.o(.text) refers to udp.o(.data) for udp_port
    udp.o(.text) refers to ip.o(.data) for current_iphdr_dest
    udp.o(.text) refers to memp.o(.text) for memp_free
    udp.o(.text) refers to memseta.o(.text) for __aeabi_memclr4
    netconf.o(.text) refers to mem.o(.text) for mem_init
    netconf.o(.text) refers to memp.o(.text) for memp_init
    netconf.o(.text) refers to netif.o(.text) for netif_add
    netconf.o(.text) refers to printf8.o(i.__0printf$8) for __2printf
    netconf.o(.text) refers to ethernetif.o(.text) for ethernetif_input
    netconf.o(.text) refers to tcp.o(.text) for tcp_tmr
    netconf.o(.text) refers to etharp.o(.text) for etharp_tmr
    netconf.o(.text) refers to netconf.o(.bss) for gnetif
    netconf.o(.text) refers to stm32f4x7_eth_bsp.o(.data) for EthStatus
    netconf.o(.text) refers to stm32f4x7_eth_bsp.o(.text) for ETH_link_callback
    netconf.o(.text) refers to netconf.o(.data) for TCPTimer
    stm32f4x7_eth_bsp.o(.text) refers to stm32f4xx_rcc.o(.text) for RCC_AHB1PeriphClockCmd
    stm32f4x7_eth_bsp.o(.text) refers to stm32f4x7_eth.o(.text) for ETH_DeInit
    stm32f4x7_eth_bsp.o(.text) refers to stm32f4xx_syscfg.o(.text) for SYSCFG_ETH_MediaInterfaceConfig
    stm32f4x7_eth_bsp.o(.text) refers to stm32f4xx_gpio.o(.text) for GPIO_Init
    stm32f4x7_eth_bsp.o(.text) refers to scope_eval.o(.text) for EVAL_OutputClr
    stm32f4x7_eth_bsp.o(.text) refers to scope_it.o(.text) for IT_SYS_DlyMs
    stm32f4x7_eth_bsp.o(.text) refers to stm32f4xx_exti.o(.text) for EXTI_Init
    stm32f4x7_eth_bsp.o(.text) refers to misc.o(.text) for NVIC_Init
    stm32f4x7_eth_bsp.o(.text) refers to netif.o(.text) for netif_set_link_up
    stm32f4x7_eth_bsp.o(.text) refers to printf8.o(i.__0printf$8) for __2printf
    stm32f4x7_eth_bsp.o(.text) refers to stm32f4x7_eth_bsp.o(.bss) for ETH_InitStructure
    stm32f4x7_eth_bsp.o(.text) refers to stm32f4x7_eth_bsp.o(.data) for EthStatus
    stm32f4x7_eth_bsp.o(.text) refers to netconf.o(.bss) for gnetif
    udp_echoserver.o(.text) refers to netbuffercircle.o(.text) for NET_BUF_Recv_GetLenRemain
    udp_echoserver.o(.text) refers to printf8.o(i.__0printf$8) for __2printf
    udp_echoserver.o(.text) refers to protocol.o(.text) for PL_COM_SendNChar
    udp_echoserver.o(.text) refers to pbuf.o(.text) for pbuf_free
    udp_echoserver.o(.text) refers to udp.o(.text) for udp_new
    udp_echoserver.o(.text) refers to udp_echoserver.o(.data) for s_tAddr
    udp_echoserver.o(.text) refers to udp_echoserver.o(.constdata) for .constdata
    udp_echoserver.o(.text) refers to ip_addr.o(.constdata) for ip_addr_any
    entry.o(.ARM.Collect$$$$00000000) refers (Special) to entry10a.o(.ARM.Collect$$$$0000000D) for __rt_final_cpp
    entry.o(.ARM.Collect$$$$00000000) refers (Special) to entry11a.o(.ARM.Collect$$$$0000000F) for __rt_final_exit
    entry.o(.ARM.Collect$$$$00000000) refers (Special) to entry7b.o(.ARM.Collect$$$$00000008) for _main_clock
    entry.o(.ARM.Collect$$$$00000000) refers (Special) to entry8b.o(.ARM.Collect$$$$0000000A) for _main_cpp_init
    entry.o(.ARM.Collect$$$$00000000) refers (Special) to entry9a.o(.ARM.Collect$$$$0000000B) for _main_init
    entry.o(.ARM.Collect$$$$00000000) refers (Special) to entry5.o(.ARM.Collect$$$$00000004) for _main_scatterload
    entry.o(.ARM.Collect$$$$00000000) refers (Special) to entry2.o(.ARM.Collect$$$$00000001) for _main_stk
    printfb.o(i.__0fprintf$bare) refers to printfb.o(i._printf_core) for _printf_core
    printfb.o(i.__0fprintf$bare) refers to scope_eval.o(.text) for fputc
    printfb.o(i.__0printf$bare) refers to printfb.o(i._printf_core) for _printf_core
    printfb.o(i.__0printf$bare) refers to scope_eval.o(.text) for fputc
    printfb.o(i.__0printf$bare) refers to stdout.o(.data) for __stdout
    printfb.o(i.__0snprintf$bare) refers to printfb.o(i._printf_core) for _printf_core
    printfb.o(i.__0snprintf$bare) refers to printfb.o(i._snputc) for _snputc
    printfb.o(i.__0sprintf$bare) refers to printfb.o(i._printf_core) for _printf_core
    printfb.o(i.__0sprintf$bare) refers to printfb.o(i._sputc) for _sputc
    printfb.o(i.__0vfprintf$bare) refers to printfb.o(i._printf_core) for _printf_core
    printfb.o(i.__0vfprintf$bare) refers to scope_eval.o(.text) for fputc
    printfb.o(i.__0vprintf$bare) refers to printfb.o(i._printf_core) for _printf_core
    printfb.o(i.__0vprintf$bare) refers to scope_eval.o(.text) for fputc
    printfb.o(i.__0vprintf$bare) refers to stdout.o(.data) for __stdout
    printfb.o(i.__0vsnprintf$bare) refers to printfb.o(i._printf_core) for _printf_core
    printfb.o(i.__0vsnprintf$bare) refers to printfb.o(i._snputc) for _snputc
    printfb.o(i.__0vsprintf$bare) refers to printfb.o(i._printf_core) for _printf_core
    printfb.o(i.__0vsprintf$bare) refers to printfb.o(i._sputc) for _sputc
    printf0.o(i.__0fprintf$0) refers to printf0.o(i._printf_core) for _printf_core
    printf0.o(i.__0fprintf$0) refers to scope_eval.o(.text) for fputc
    printf0.o(i.__0printf$0) refers to printf0.o(i._printf_core) for _printf_core
    printf0.o(i.__0printf$0) refers to scope_eval.o(.text) for fputc
    printf0.o(i.__0printf$0) refers to stdout.o(.data) for __stdout
    printf0.o(i.__0snprintf$0) refers to printf0.o(i._printf_core) for _printf_core
    printf0.o(i.__0snprintf$0) refers to printf0.o(i._snputc) for _snputc
    printf0.o(i.__0sprintf$0) refers to printf0.o(i._printf_core) for _printf_core
    printf0.o(i.__0sprintf$0) refers to printf0.o(i._sputc) for _sputc
    printf0.o(i.__0vfprintf$0) refers to printf0.o(i._printf_core) for _printf_core
    printf0.o(i.__0vfprintf$0) refers to scope_eval.o(.text) for fputc
    printf0.o(i.__0vprintf$0) refers to printf0.o(i._printf_core) for _printf_core
    printf0.o(i.__0vprintf$0) refers to scope_eval.o(.text) for fputc
    printf0.o(i.__0vprintf$0) refers to stdout.o(.data) for __stdout
    printf0.o(i.__0vsnprintf$0) refers to printf0.o(i._printf_core) for _printf_core
    printf0.o(i.__0vsnprintf$0) refers to printf0.o(i._snputc) for _snputc
    printf0.o(i.__0vsprintf$0) refers to printf0.o(i._printf_core) for _printf_core
    printf0.o(i.__0vsprintf$0) refers to printf0.o(i._sputc) for _sputc
    printf1.o(i.__0fprintf$1) refers to printf1.o(i._printf_core) for _printf_core
    printf1.o(i.__0fprintf$1) refers to scope_eval.o(.text) for fputc
    printf1.o(i.__0printf$1) refers to printf1.o(i._printf_core) for _printf_core
    printf1.o(i.__0printf$1) refers to scope_eval.o(.text) for fputc
    printf1.o(i.__0printf$1) refers to stdout.o(.data) for __stdout
    printf1.o(i.__0snprintf$1) refers to printf1.o(i._printf_core) for _printf_core
    printf1.o(i.__0snprintf$1) refers to printf1.o(i._snputc) for _snputc
    printf1.o(i.__0sprintf$1) refers to printf1.o(i._printf_core) for _printf_core
    printf1.o(i.__0sprintf$1) refers to printf1.o(i._sputc) for _sputc
    printf1.o(i.__0vfprintf$1) refers to printf1.o(i._printf_core) for _printf_core
    printf1.o(i.__0vfprintf$1) refers to scope_eval.o(.text) for fputc
    printf1.o(i.__0vprintf$1) refers to printf1.o(i._printf_core) for _printf_core
    printf1.o(i.__0vprintf$1) refers to scope_eval.o(.text) for fputc
    printf1.o(i.__0vprintf$1) refers to stdout.o(.data) for __stdout
    printf1.o(i.__0vsnprintf$1) refers to printf1.o(i._printf_core) for _printf_core
    printf1.o(i.__0vsnprintf$1) refers to printf1.o(i._snputc) for _snputc
    printf1.o(i.__0vsprintf$1) refers to printf1.o(i._printf_core) for _printf_core
    printf1.o(i.__0vsprintf$1) refers to printf1.o(i._sputc) for _sputc
    printf1.o(i._printf_core) refers to uidiv.o(.text) for __aeabi_uidivmod
    printf2.o(i.__0fprintf$2) refers to printf2.o(i._printf_core) for _printf_core
    printf2.o(i.__0fprintf$2) refers to scope_eval.o(.text) for fputc
    printf2.o(i.__0printf$2) refers to printf2.o(i._printf_core) for _printf_core
    printf2.o(i.__0printf$2) refers to scope_eval.o(.text) for fputc
    printf2.o(i.__0printf$2) refers to stdout.o(.data) for __stdout
    printf2.o(i.__0snprintf$2) refers to printf2.o(i._printf_core) for _printf_core
    printf2.o(i.__0snprintf$2) refers to printf2.o(i._snputc) for _snputc
    printf2.o(i.__0sprintf$2) refers to printf2.o(i._printf_core) for _printf_core
    printf2.o(i.__0sprintf$2) refers to printf2.o(i._sputc) for _sputc
    printf2.o(i.__0vfprintf$2) refers to printf2.o(i._printf_core) for _printf_core
    printf2.o(i.__0vfprintf$2) refers to scope_eval.o(.text) for fputc
    printf2.o(i.__0vprintf$2) refers to printf2.o(i._printf_core) for _printf_core
    printf2.o(i.__0vprintf$2) refers to scope_eval.o(.text) for fputc
    printf2.o(i.__0vprintf$2) refers to stdout.o(.data) for __stdout
    printf2.o(i.__0vsnprintf$2) refers to printf2.o(i._printf_core) for _printf_core
    printf2.o(i.__0vsnprintf$2) refers to printf2.o(i._snputc) for _snputc
    printf2.o(i.__0vsprintf$2) refers to printf2.o(i._printf_core) for _printf_core
    printf2.o(i.__0vsprintf$2) refers to printf2.o(i._sputc) for _sputc
    printf3.o(i.__0fprintf$3) refers to printf3.o(i._printf_core) for _printf_core
    printf3.o(i.__0fprintf$3) refers to scope_eval.o(.text) for fputc
    printf3.o(i.__0printf$3) refers to printf3.o(i._printf_core) for _printf_core
    printf3.o(i.__0printf$3) refers to scope_eval.o(.text) for fputc
    printf3.o(i.__0printf$3) refers to stdout.o(.data) for __stdout
    printf3.o(i.__0snprintf$3) refers to printf3.o(i._printf_core) for _printf_core
    printf3.o(i.__0snprintf$3) refers to printf3.o(i._snputc) for _snputc
    printf3.o(i.__0sprintf$3) refers to printf3.o(i._printf_core) for _printf_core
    printf3.o(i.__0sprintf$3) refers to printf3.o(i._sputc) for _sputc
    printf3.o(i.__0vfprintf$3) refers to printf3.o(i._printf_core) for _printf_core
    printf3.o(i.__0vfprintf$3) refers to scope_eval.o(.text) for fputc
    printf3.o(i.__0vprintf$3) refers to printf3.o(i._printf_core) for _printf_core
    printf3.o(i.__0vprintf$3) refers to scope_eval.o(.text) for fputc
    printf3.o(i.__0vprintf$3) refers to stdout.o(.data) for __stdout
    printf3.o(i.__0vsnprintf$3) refers to printf3.o(i._printf_core) for _printf_core
    printf3.o(i.__0vsnprintf$3) refers to printf3.o(i._snputc) for _snputc
    printf3.o(i.__0vsprintf$3) refers to printf3.o(i._printf_core) for _printf_core
    printf3.o(i.__0vsprintf$3) refers to printf3.o(i._sputc) for _sputc
    printf3.o(i._printf_core) refers to uidiv.o(.text) for __aeabi_uidivmod
    printf4.o(i.__0fprintf$4) refers to printf4.o(i._printf_core) for _printf_core
    printf4.o(i.__0fprintf$4) refers to scope_eval.o(.text) for fputc
    printf4.o(i.__0printf$4) refers to printf4.o(i._printf_core) for _printf_core
    printf4.o(i.__0printf$4) refers to scope_eval.o(.text) for fputc
    printf4.o(i.__0printf$4) refers to stdout.o(.data) for __stdout
    printf4.o(i.__0snprintf$4) refers to printf4.o(i._printf_core) for _printf_core
    printf4.o(i.__0snprintf$4) refers to printf4.o(i._snputc) for _snputc
    printf4.o(i.__0sprintf$4) refers to printf4.o(i._printf_core) for _printf_core
    printf4.o(i.__0sprintf$4) refers to printf4.o(i._sputc) for _sputc
    printf4.o(i.__0vfprintf$4) refers to printf4.o(i._printf_core) for _printf_core
    printf4.o(i.__0vfprintf$4) refers to scope_eval.o(.text) for fputc
    printf4.o(i.__0vprintf$4) refers to printf4.o(i._printf_core) for _printf_core
    printf4.o(i.__0vprintf$4) refers to scope_eval.o(.text) for fputc
    printf4.o(i.__0vprintf$4) refers to stdout.o(.data) for __stdout
    printf4.o(i.__0vsnprintf$4) refers to printf4.o(i._printf_core) for _printf_core
    printf4.o(i.__0vsnprintf$4) refers to printf4.o(i._snputc) for _snputc
    printf4.o(i.__0vsprintf$4) refers to printf4.o(i._printf_core) for _printf_core
    printf4.o(i.__0vsprintf$4) refers to printf4.o(i._sputc) for _sputc
    printf4.o(i._printf_core) refers to uldiv.o(.text) for __aeabi_uldivmod
    printf5.o(i.__0fprintf$5) refers to printf5.o(i._printf_core) for _printf_core
    printf5.o(i.__0fprintf$5) refers to scope_eval.o(.text) for fputc
    printf5.o(i.__0printf$5) refers to printf5.o(i._printf_core) for _printf_core
    printf5.o(i.__0printf$5) refers to scope_eval.o(.text) for fputc
    printf5.o(i.__0printf$5) refers to stdout.o(.data) for __stdout
    printf5.o(i.__0snprintf$5) refers to printf5.o(i._printf_core) for _printf_core
    printf5.o(i.__0snprintf$5) refers to printf5.o(i._snputc) for _snputc
    printf5.o(i.__0sprintf$5) refers to printf5.o(i._printf_core) for _printf_core
    printf5.o(i.__0sprintf$5) refers to printf5.o(i._sputc) for _sputc
    printf5.o(i.__0vfprintf$5) refers to printf5.o(i._printf_core) for _printf_core
    printf5.o(i.__0vfprintf$5) refers to scope_eval.o(.text) for fputc
    printf5.o(i.__0vprintf$5) refers to printf5.o(i._printf_core) for _printf_core
    printf5.o(i.__0vprintf$5) refers to scope_eval.o(.text) for fputc
    printf5.o(i.__0vprintf$5) refers to stdout.o(.data) for __stdout
    printf5.o(i.__0vsnprintf$5) refers to printf5.o(i._printf_core) for _printf_core
    printf5.o(i.__0vsnprintf$5) refers to printf5.o(i._snputc) for _snputc
    printf5.o(i.__0vsprintf$5) refers to printf5.o(i._printf_core) for _printf_core
    printf5.o(i.__0vsprintf$5) refers to printf5.o(i._sputc) for _sputc
    printf5.o(i._printf_core) refers to uldiv.o(.text) for __aeabi_uldivmod
    printf6.o(i.__0fprintf$6) refers to printf6.o(i._printf_core) for _printf_core
    printf6.o(i.__0fprintf$6) refers to scope_eval.o(.text) for fputc
    printf6.o(i.__0printf$6) refers to printf6.o(i._printf_core) for _printf_core
    printf6.o(i.__0printf$6) refers to scope_eval.o(.text) for fputc
    printf6.o(i.__0printf$6) refers to stdout.o(.data) for __stdout
    printf6.o(i.__0snprintf$6) refers to printf6.o(i._printf_core) for _printf_core
    printf6.o(i.__0snprintf$6) refers to printf6.o(i._snputc) for _snputc
    printf6.o(i.__0sprintf$6) refers to printf6.o(i._printf_core) for _printf_core
    printf6.o(i.__0sprintf$6) refers to printf6.o(i._sputc) for _sputc
    printf6.o(i.__0vfprintf$6) refers to printf6.o(i._printf_core) for _printf_core
    printf6.o(i.__0vfprintf$6) refers to scope_eval.o(.text) for fputc
    printf6.o(i.__0vprintf$6) refers to printf6.o(i._printf_core) for _printf_core
    printf6.o(i.__0vprintf$6) refers to scope_eval.o(.text) for fputc
    printf6.o(i.__0vprintf$6) refers to stdout.o(.data) for __stdout
    printf6.o(i.__0vsnprintf$6) refers to printf6.o(i._printf_core) for _printf_core
    printf6.o(i.__0vsnprintf$6) refers to printf6.o(i._snputc) for _snputc
    printf6.o(i.__0vsprintf$6) refers to printf6.o(i._printf_core) for _printf_core
    printf6.o(i.__0vsprintf$6) refers to printf6.o(i._sputc) for _sputc
    printf6.o(i._printf_core) refers to printf6.o(i._printf_pre_padding) for _printf_pre_padding
    printf6.o(i._printf_core) refers to uidiv.o(.text) for __aeabi_uidivmod
    printf6.o(i._printf_core) refers to printf6.o(i._printf_post_padding) for _printf_post_padding
    printf7.o(i.__0fprintf$7) refers to printf7.o(i._printf_core) for _printf_core
    printf7.o(i.__0fprintf$7) refers to scope_eval.o(.text) for fputc
    printf7.o(i.__0printf$7) refers to printf7.o(i._printf_core) for _printf_core
    printf7.o(i.__0printf$7) refers to scope_eval.o(.text) for fputc
    printf7.o(i.__0printf$7) refers to stdout.o(.data) for __stdout
    printf7.o(i.__0snprintf$7) refers to printf7.o(i._printf_core) for _printf_core
    printf7.o(i.__0snprintf$7) refers to printf7.o(i._snputc) for _snputc
    printf7.o(i.__0sprintf$7) refers to printf7.o(i._printf_core) for _printf_core
    printf7.o(i.__0sprintf$7) refers to printf7.o(i._sputc) for _sputc
    printf7.o(i.__0vfprintf$7) refers to printf7.o(i._printf_core) for _printf_core
    printf7.o(i.__0vfprintf$7) refers to scope_eval.o(.text) for fputc
    printf7.o(i.__0vprintf$7) refers to printf7.o(i._printf_core) for _printf_core
    printf7.o(i.__0vprintf$7) refers to scope_eval.o(.text) for fputc
    printf7.o(i.__0vprintf$7) refers to stdout.o(.data) for __stdout
    printf7.o(i.__0vsnprintf$7) refers to printf7.o(i._printf_core) for _printf_core
    printf7.o(i.__0vsnprintf$7) refers to printf7.o(i._snputc) for _snputc
    printf7.o(i.__0vsprintf$7) refers to printf7.o(i._printf_core) for _printf_core
    printf7.o(i.__0vsprintf$7) refers to printf7.o(i._sputc) for _sputc
    printf7.o(i._printf_core) refers to printf7.o(i._printf_pre_padding) for _printf_pre_padding
    printf7.o(i._printf_core) refers to uldiv.o(.text) for __aeabi_uldivmod
    printf7.o(i._printf_core) refers to printf7.o(i._printf_post_padding) for _printf_post_padding
    printf8.o(i.__0fprintf$8) refers to printf8.o(i._printf_core) for _printf_core
    printf8.o(i.__0fprintf$8) refers to scope_eval.o(.text) for fputc
    printf8.o(i.__0printf$8) refers to printf8.o(i._printf_core) for _printf_core
    printf8.o(i.__0printf$8) refers to scope_eval.o(.text) for fputc
    printf8.o(i.__0printf$8) refers to stdout.o(.data) for __stdout
    printf8.o(i.__0snprintf$8) refers to printf8.o(i._printf_core) for _printf_core
    printf8.o(i.__0snprintf$8) refers to printf8.o(i._snputc) for _snputc
    printf8.o(i.__0sprintf$8) refers to printf8.o(i._printf_core) for _printf_core
    printf8.o(i.__0sprintf$8) refers to printf8.o(i._sputc) for _sputc
    printf8.o(i.__0vfprintf$8) refers to printf8.o(i._printf_core) for _printf_core
    printf8.o(i.__0vfprintf$8) refers to scope_eval.o(.text) for fputc
    printf8.o(i.__0vprintf$8) refers to printf8.o(i._printf_core) for _printf_core
    printf8.o(i.__0vprintf$8) refers to scope_eval.o(.text) for fputc
    printf8.o(i.__0vprintf$8) refers to stdout.o(.data) for __stdout
    printf8.o(i.__0vsnprintf$8) refers to printf8.o(i._printf_core) for _printf_core
    printf8.o(i.__0vsnprintf$8) refers to printf8.o(i._snputc) for _snputc
    printf8.o(i.__0vsprintf$8) refers to printf8.o(i._printf_core) for _printf_core
    printf8.o(i.__0vsprintf$8) refers to printf8.o(i._sputc) for _sputc
    printf8.o(i._printf_core) refers to printf8.o(i._printf_pre_padding) for _printf_pre_padding
    printf8.o(i._printf_core) refers to uldiv.o(.text) for __aeabi_uldivmod
    printf8.o(i._printf_core) refers to printf8.o(i._printf_post_padding) for _printf_post_padding
    printfa.o(i.__0fprintf) refers (Special) to iusefp.o(.text) for __I$use$fp
    printfa.o(i.__0fprintf) refers to printfa.o(i._printf_core) for _printf_core
    printfa.o(i.__0fprintf) refers to scope_eval.o(.text) for fputc
    printfa.o(i.__0printf) refers (Special) to iusefp.o(.text) for __I$use$fp
    printfa.o(i.__0printf) refers to printfa.o(i._printf_core) for _printf_core
    printfa.o(i.__0printf) refers to scope_eval.o(.text) for fputc
    printfa.o(i.__0printf) refers to stdout.o(.data) for __stdout
    printfa.o(i.__0snprintf) refers (Special) to iusefp.o(.text) for __I$use$fp
    printfa.o(i.__0snprintf) refers to printfa.o(i._printf_core) for _printf_core
    printfa.o(i.__0snprintf) refers to printfa.o(i._snputc) for _snputc
    printfa.o(i.__0sprintf) refers (Special) to iusefp.o(.text) for __I$use$fp
    printfa.o(i.__0sprintf) refers to printfa.o(i._printf_core) for _printf_core
    printfa.o(i.__0sprintf) refers to printfa.o(i._sputc) for _sputc
    printfa.o(i.__0vfprintf) refers (Special) to iusefp.o(.text) for __I$use$fp
    printfa.o(i.__0vfprintf) refers to printfa.o(i._printf_core) for _printf_core
    printfa.o(i.__0vfprintf) refers to scope_eval.o(.text) for fputc
    printfa.o(i.__0vprintf) refers (Special) to iusefp.o(.text) for __I$use$fp
    printfa.o(i.__0vprintf) refers to printfa.o(i._printf_core) for _printf_core
    printfa.o(i.__0vprintf) refers to scope_eval.o(.text) for fputc
    printfa.o(i.__0vprintf) refers to stdout.o(.data) for __stdout
    printfa.o(i.__0vsnprintf) refers (Special) to iusefp.o(.text) for __I$use$fp
    printfa.o(i.__0vsnprintf) refers to printfa.o(i._printf_core) for _printf_core
    printfa.o(i.__0vsnprintf) refers to printfa.o(i._snputc) for _snputc
    printfa.o(i.__0vsprintf) refers (Special) to iusefp.o(.text) for __I$use$fp
    printfa.o(i.__0vsprintf) refers to printfa.o(i._printf_core) for _printf_core
    printfa.o(i.__0vsprintf) refers to printfa.o(i._sputc) for _sputc
    printfa.o(i._fp_digits) refers (Special) to iusefp.o(.text) for __I$use$fp
    printfa.o(i._fp_digits) refers to dmul.o(.text) for __aeabi_dmul
    printfa.o(i._fp_digits) refers to ddiv.o(.text) for __aeabi_ddiv
    printfa.o(i._fp_digits) refers to cdrcmple.o(.text) for __aeabi_cdrcmple
    printfa.o(i._fp_digits) refers to dadd.o(.text) for __aeabi_dadd
    printfa.o(i._fp_digits) refers to dfixul.o(.text) for __aeabi_d2ulz
    printfa.o(i._fp_digits) refers to uldiv.o(.text) for __aeabi_uldivmod
    printfa.o(i._printf_core) refers (Special) to iusefp.o(.text) for __I$use$fp
    printfa.o(i._printf_core) refers to printfa.o(i._printf_pre_padding) for _printf_pre_padding
    printfa.o(i._printf_core) refers to uldiv.o(.text) for __aeabi_uldivmod
    printfa.o(i._printf_core) refers to printfa.o(i._printf_post_padding) for _printf_post_padding
    printfa.o(i._printf_core) refers to printfa.o(i._fp_digits) for _fp_digits
    printfa.o(i._printf_core) refers to uidiv.o(.text) for __aeabi_uidivmod
    printfa.o(i._printf_post_padding) refers (Special) to iusefp.o(.text) for __I$use$fp
    printfa.o(i._printf_pre_padding) refers (Special) to iusefp.o(.text) for __I$use$fp
    printfa.o(i._snputc) refers (Special) to iusefp.o(.text) for __I$use$fp
    printfa.o(i._sputc) refers (Special) to iusefp.o(.text) for __I$use$fp
    dadd.o(.text) refers (Special) to iusefp.o(.text) for __I$use$fp
    dadd.o(.text) refers to llshl.o(.text) for __aeabi_llsl
    dadd.o(.text) refers to llsshr.o(.text) for __aeabi_lasr
    dadd.o(.text) refers to depilogue.o(.text) for _double_epilogue
    dmul.o(.text) refers (Special) to iusefp.o(.text) for __I$use$fp
    dmul.o(.text) refers to depilogue.o(.text) for _double_epilogue
    dfltui.o(.text) refers (Special) to iusefp.o(.text) for __I$use$fp
    dfltui.o(.text) refers to depilogue.o(.text) for _double_epilogue
    dfixi.o(.text) refers (Special) to iusefp.o(.text) for __I$use$fp
    dfixi.o(.text) refers to llushr.o(.text) for __aeabi_llsr
    dfixui.o(.text) refers (Special) to iusefp.o(.text) for __I$use$fp
    dfixui.o(.text) refers to llushr.o(.text) for __aeabi_llsr
    cdrcmple.o(.text) refers (Special) to iusefp.o(.text) for __I$use$fp
    entry2.o(.ARM.Collect$$$$00000001) refers to entry2.o(.ARM.Collect$$$$00002712) for __lit__00000000
    entry2.o(.ARM.Collect$$$$00002712) refers to startup_stm32f40_41xxx.o(STACK) for __initial_sp
    entry2.o(__vectab_stack_and_reset_area) refers to startup_stm32f40_41xxx.o(STACK) for __initial_sp
    entry2.o(__vectab_stack_and_reset_area) refers to entry.o(.ARM.Collect$$$$00000000) for __main
    entry5.o(.ARM.Collect$$$$00000004) refers to init.o(.text) for __scatterload
    entry9a.o(.ARM.Collect$$$$0000000B) refers to scopemain.o(.text) for main
    entry9b.o(.ARM.Collect$$$$0000000C) refers to scopemain.o(.text) for main
    uldiv.o(.text) refers to llushr.o(.text) for __aeabi_llsr
    uldiv.o(.text) refers to llshl.o(.text) for __aeabi_llsl
    depilogue.o(.text) refers to llshl.o(.text) for __aeabi_llsl
    depilogue.o(.text) refers to llushr.o(.text) for __aeabi_llsr
    ddiv.o(.text) refers to depilogue.o(.text) for _double_round
    dfixul.o(.text) refers to llushr.o(.text) for __aeabi_llsr
    dfixul.o(.text) refers to llshl.o(.text) for __aeabi_llsl
    init.o(.text) refers to entry5.o(.ARM.Collect$$$$00000004) for __main_after_scatterload


==============================================================================

Removing Unused input sections from the image.

    Removing scopemain.o(.rev16_text), (4 bytes).
    Removing scopemain.o(.revsh_text), (4 bytes).
    Removing system_stm32f4xx.o(.rev16_text), (4 bytes).
    Removing system_stm32f4xx.o(.revsh_text), (4 bytes).
    Removing startup_stm32f40_41xxx.o(HEAP), (1024 bytes).
    Removing systemscope.o(.rev16_text), (4 bytes).
    Removing systemscope.o(.revsh_text), (4 bytes).
    Removing processscope.o(.rev16_text), (4 bytes).
    Removing processscope.o(.revsh_text), (4 bytes).
    Removing protocol.o(.rev16_text), (4 bytes).
    Removing protocol.o(.revsh_text), (4 bytes).
    Removing interfacescope.o(.rev16_text), (4 bytes).
    Removing interfacescope.o(.revsh_text), (4 bytes).
    Removing samplingport.o(.rev16_text), (4 bytes).
    Removing samplingport.o(.revsh_text), (4 bytes).
    Removing storagemanagement.o(.rev16_text), (4 bytes).
    Removing storagemanagement.o(.revsh_text), (4 bytes).
    Removing stm32f4x7_eth.o(.rev16_text), (4 bytes).
    Removing stm32f4x7_eth.o(.revsh_text), (4 bytes).
    Removing misc.o(.rev16_text), (4 bytes).
    Removing misc.o(.revsh_text), (4 bytes).
    Removing stm32f4xx_wwdg.o(.rev16_text), (4 bytes).
    Removing stm32f4xx_wwdg.o(.revsh_text), (4 bytes).
    Removing stm32f4xx_wwdg.o(.text), (276 bytes).
    Removing stm32f4xx_adc.o(.rev16_text), (4 bytes).
    Removing stm32f4xx_adc.o(.revsh_text), (4 bytes).
    Removing stm32f4xx_can.o(.rev16_text), (4 bytes).
    Removing stm32f4xx_can.o(.revsh_text), (4 bytes).
    Removing stm32f4xx_can.o(.text), (4356 bytes).
    Removing stm32f4xx_crc.o(.rev16_text), (4 bytes).
    Removing stm32f4xx_crc.o(.revsh_text), (4 bytes).
    Removing stm32f4xx_crc.o(.text), (72 bytes).
    Removing stm32f4xx_cryp.o(.rev16_text), (4 bytes).
    Removing stm32f4xx_cryp.o(.revsh_text), (4 bytes).
    Removing stm32f4xx_cryp.o(.text), (1288 bytes).
    Removing stm32f4xx_cryp_aes.o(.rev16_text), (4 bytes).
    Removing stm32f4xx_cryp_aes.o(.revsh_text), (4 bytes).
    Removing stm32f4xx_cryp_aes.o(.text), (4586 bytes).
    Removing stm32f4xx_cryp_des.o(.rev16_text), (4 bytes).
    Removing stm32f4xx_cryp_des.o(.revsh_text), (4 bytes).
    Removing stm32f4xx_cryp_des.o(.text), (476 bytes).
    Removing stm32f4xx_cryp_tdes.o(.rev16_text), (4 bytes).
    Removing stm32f4xx_cryp_tdes.o(.revsh_text), (4 bytes).
    Removing stm32f4xx_cryp_tdes.o(.text), (540 bytes).
    Removing stm32f4xx_dac.o(.rev16_text), (4 bytes).
    Removing stm32f4xx_dac.o(.revsh_text), (4 bytes).
    Removing stm32f4xx_dbgmcu.o(.rev16_text), (4 bytes).
    Removing stm32f4xx_dbgmcu.o(.revsh_text), (4 bytes).
    Removing stm32f4xx_dbgmcu.o(.text), (272 bytes).
    Removing stm32f4xx_dcmi.o(.rev16_text), (4 bytes).
    Removing stm32f4xx_dcmi.o(.revsh_text), (4 bytes).
    Removing stm32f4xx_dcmi.o(.text), (888 bytes).
    Removing stm32f4xx_dma2d.o(.rev16_text), (4 bytes).
    Removing stm32f4xx_dma2d.o(.revsh_text), (4 bytes).
    Removing stm32f4xx_dma2d.o(.text), (2048 bytes).
    Removing stm32f4xx_dma.o(.rev16_text), (4 bytes).
    Removing stm32f4xx_dma.o(.revsh_text), (4 bytes).
    Removing stm32f4xx_exti.o(.rev16_text), (4 bytes).
    Removing stm32f4xx_exti.o(.revsh_text), (4 bytes).
    Removing stm32f4xx_flash.o(.rev16_text), (4 bytes).
    Removing stm32f4xx_flash.o(.revsh_text), (4 bytes).
    Removing stm32f4xx_flash_ramfunc.o(.rev16_text), (4 bytes).
    Removing stm32f4xx_flash_ramfunc.o(.revsh_text), (4 bytes).
    Removing stm32f4xx_flash_ramfunc.o(.text), (64 bytes).
    Removing stm32f4xx_fsmc.o(.rev16_text), (4 bytes).
    Removing stm32f4xx_fsmc.o(.revsh_text), (4 bytes).
    Removing stm32f4xx_gpio.o(.rev16_text), (4 bytes).
    Removing stm32f4xx_gpio.o(.revsh_text), (4 bytes).
    Removing stm32f4xx_hash.o(.rev16_text), (4 bytes).
    Removing stm32f4xx_hash.o(.revsh_text), (4 bytes).
    Removing stm32f4xx_hash.o(.text), (924 bytes).
    Removing stm32f4xx_hash_md5.o(.rev16_text), (4 bytes).
    Removing stm32f4xx_hash_md5.o(.revsh_text), (4 bytes).
    Removing stm32f4xx_hash_md5.o(.text), (534 bytes).
    Removing stm32f4xx_hash_sha1.o(.rev16_text), (4 bytes).
    Removing stm32f4xx_hash_sha1.o(.revsh_text), (4 bytes).
    Removing stm32f4xx_hash_sha1.o(.text), (548 bytes).
    Removing stm32f4xx_i2c.o(.rev16_text), (4 bytes).
    Removing stm32f4xx_i2c.o(.revsh_text), (4 bytes).
    Removing stm32f4xx_i2c.o(.text), (3576 bytes).
    Removing stm32f4xx_iwdg.o(.rev16_text), (4 bytes).
    Removing stm32f4xx_iwdg.o(.revsh_text), (4 bytes).
    Removing stm32f4xx_iwdg.o(.text), (208 bytes).
    Removing stm32f4xx_ltdc.o(.rev16_text), (4 bytes).
    Removing stm32f4xx_ltdc.o(.revsh_text), (4 bytes).
    Removing stm32f4xx_ltdc.o(.text), (2640 bytes).
    Removing stm32f4xx_pwr.o(.rev16_text), (4 bytes).
    Removing stm32f4xx_pwr.o(.revsh_text), (4 bytes).
    Removing stm32f4xx_pwr.o(.text), (796 bytes).
    Removing stm32f4xx_rcc.o(.rev16_text), (4 bytes).
    Removing stm32f4xx_rcc.o(.revsh_text), (4 bytes).
    Removing stm32f4xx_rng.o(.rev16_text), (4 bytes).
    Removing stm32f4xx_rng.o(.revsh_text), (4 bytes).
    Removing stm32f4xx_rng.o(.text), (344 bytes).
    Removing stm32f4xx_rtc.o(.rev16_text), (4 bytes).
    Removing stm32f4xx_rtc.o(.revsh_text), (4 bytes).
    Removing stm32f4xx_rtc.o(.text), (6088 bytes).
    Removing stm32f4xx_sai.o(.rev16_text), (4 bytes).
    Removing stm32f4xx_sai.o(.revsh_text), (4 bytes).
    Removing stm32f4xx_sai.o(.text), (2200 bytes).
    Removing stm32f4xx_sdio.o(.rev16_text), (4 bytes).
    Removing stm32f4xx_sdio.o(.revsh_text), (4 bytes).
    Removing stm32f4xx_sdio.o(.text), (1616 bytes).
    Removing stm32f4xx_spi.o(.rev16_text), (4 bytes).
    Removing stm32f4xx_spi.o(.revsh_text), (4 bytes).
    Removing stm32f4xx_syscfg.o(.rev16_text), (4 bytes).
    Removing stm32f4xx_syscfg.o(.revsh_text), (4 bytes).
    Removing stm32f4xx_tim.o(.rev16_text), (4 bytes).
    Removing stm32f4xx_tim.o(.revsh_text), (4 bytes).
    Removing stm32f4xx_usart.o(.rev16_text), (4 bytes).
    Removing stm32f4xx_usart.o(.revsh_text), (4 bytes).
    Removing fpga.o(.rev16_text), (4 bytes).
    Removing fpga.o(.revsh_text), (4 bytes).
    Removing scope_it.o(.rev16_text), (4 bytes).
    Removing scope_it.o(.revsh_text), (4 bytes).
    Removing scope_eval.o(.rev16_text), (4 bytes).
    Removing scope_eval.o(.revsh_text), (4 bytes).
    Removing scope_move.o(.rev16_text), (4 bytes).
    Removing scope_move.o(.revsh_text), (4 bytes).
    Removing buffercircle.o(.rev16_text), (4 bytes).
    Removing buffercircle.o(.revsh_text), (4 bytes).
    Removing netbuffercircle.o(.rev16_text), (4 bytes).
    Removing netbuffercircle.o(.revsh_text), (4 bytes).
    Removing samplebuffercircle.o(.rev16_text), (4 bytes).
    Removing samplebuffercircle.o(.revsh_text), (4 bytes).
    Removing interruptbuffercircle.o(.rev16_text), (4 bytes).
    Removing interruptbuffercircle.o(.revsh_text), (4 bytes).
    Removing interruptbuffercircle.o(.text), (456 bytes).
    Removing interruptbuffercircle.o(.bss), (200 bytes).
    Removing interruptbuffercircle.o(.data), (4 bytes).
    Removing driver.o(.rev16_text), (4 bytes).
    Removing driver.o(.revsh_text), (4 bytes).
    Removing driver.o(.bss), (12 bytes).
    Removing f4sys.o(.rev16_text), (4 bytes).
    Removing f4sys.o(.revsh_text), (4 bytes).
    Removing f4sys.o(.emb_text), (6 bytes).
    Removing f4sys.o(.text), (1124 bytes).
    Removing ad7799.o(.rev16_text), (4 bytes).
    Removing ad7799.o(.revsh_text), (4 bytes).
    Removing ethernetif.o(.rev16_text), (4 bytes).
    Removing ethernetif.o(.revsh_text), (4 bytes).
    Removing init.o(.text), (24 bytes).
    Removing netconf.o(.rev16_text), (4 bytes).
    Removing netconf.o(.revsh_text), (4 bytes).
    Removing stm32f4x7_eth_bsp.o(.rev16_text), (4 bytes).
    Removing stm32f4x7_eth_bsp.o(.revsh_text), (4 bytes).
    Removing udp_echoserver.o(.rev16_text), (4 bytes).
    Removing udp_echoserver.o(.revsh_text), (4 bytes).
    Removing ddiv.o(.text), (222 bytes).
    Removing dfixul.o(.text), (48 bytes).

150 unused section(s) (total 37932 bytes) removed from the image.

==============================================================================

Image Symbol Table

    Local Symbols

    Symbol Name                              Value     Ov Type        Size  Object(Section)

    ../clib/../cmprslib/zerorunl2.c          0x00000000   Number         0  __dczerorl2.o ABSOLUTE
    ../clib/microlib/division.c              0x00000000   Number         0  uldiv.o ABSOLUTE
    ../clib/microlib/division.c              0x00000000   Number         0  uidiv.o ABSOLUTE
    ../clib/microlib/init/entry.s            0x00000000   Number         0  entry11b.o ABSOLUTE
    ../clib/microlib/init/entry.s            0x00000000   Number         0  entry.o ABSOLUTE
    ../clib/microlib/init/entry.s            0x00000000   Number         0  entry11a.o ABSOLUTE
    ../clib/microlib/init/entry.s            0x00000000   Number         0  entry9b.o ABSOLUTE
    ../clib/microlib/init/entry.s            0x00000000   Number         0  entry10b.o ABSOLUTE
    ../clib/microlib/init/entry.s            0x00000000   Number         0  entry9a.o ABSOLUTE
    ../clib/microlib/init/entry.s            0x00000000   Number         0  entry10a.o ABSOLUTE
    ../clib/microlib/init/entry.s            0x00000000   Number         0  entry8b.o ABSOLUTE
    ../clib/microlib/init/entry.s            0x00000000   Number         0  entry8a.o ABSOLUTE
    ../clib/microlib/init/entry.s            0x00000000   Number         0  entry2.o ABSOLUTE
    ../clib/microlib/init/entry.s            0x00000000   Number         0  entry5.o ABSOLUTE
    ../clib/microlib/init/entry.s            0x00000000   Number         0  entry7b.o ABSOLUTE
    ../clib/microlib/init/entry.s            0x00000000   Number         0  entry7a.o ABSOLUTE
    ../clib/microlib/longlong.c              0x00000000   Number         0  llushr.o ABSOLUTE
    ../clib/microlib/longlong.c              0x00000000   Number         0  llshl.o ABSOLUTE
    ../clib/microlib/longlong.c              0x00000000   Number         0  llsshr.o ABSOLUTE
    ../clib/microlib/printf/printf.c         0x00000000   Number         0  printf1.o ABSOLUTE
    ../clib/microlib/printf/printf.c         0x00000000   Number         0  printf2.o ABSOLUTE
    ../clib/microlib/printf/printf.c         0x00000000   Number         0  printf0.o ABSOLUTE
    ../clib/microlib/printf/printf.c         0x00000000   Number         0  printf3.o ABSOLUTE
    ../clib/microlib/printf/printf.c         0x00000000   Number         0  printf8.o ABSOLUTE
    ../clib/microlib/printf/printf.c         0x00000000   Number         0  printf4.o ABSOLUTE
    ../clib/microlib/printf/printf.c         0x00000000   Number         0  printf5.o ABSOLUTE
    ../clib/microlib/printf/printf.c         0x00000000   Number         0  printf6.o ABSOLUTE
    ../clib/microlib/printf/printf.c         0x00000000   Number         0  printf7.o ABSOLUTE
    ../clib/microlib/printf/printf.c         0x00000000   Number         0  printfa.o ABSOLUTE
    ../clib/microlib/printf/printf.c         0x00000000   Number         0  printfb.o ABSOLUTE
    ../clib/microlib/printf/stubs.s          0x00000000   Number         0  stubs.o ABSOLUTE
    ../clib/microlib/stdio/streams.c         0x00000000   Number         0  stdout.o ABSOLUTE
    ../clib/microlib/string/memcmp.c         0x00000000   Number         0  memcmp.o ABSOLUTE
    ../clib/microlib/string/memcpy.c         0x00000000   Number         0  memcpya.o ABSOLUTE
    ../clib/microlib/string/memcpy.c         0x00000000   Number         0  memcpyb.o ABSOLUTE
    ../clib/microlib/string/memset.c         0x00000000   Number         0  memseta.o ABSOLUTE
    ../clib/microlib/string/strlen.c         0x00000000   Number         0  strlen.o ABSOLUTE
    ../clib/microlib/string/strncpy.c        0x00000000   Number         0  strncpy.o ABSOLUTE
    ../clib/microlib/stubs.s                 0x00000000   Number         0  iusefp.o ABSOLUTE
    ../fplib/microlib/fpadd.c                0x00000000   Number         0  dadd.o ABSOLUTE
    ../fplib/microlib/fpdiv.c                0x00000000   Number         0  ddiv.o ABSOLUTE
    ../fplib/microlib/fpepilogue.c           0x00000000   Number         0  depilogue.o ABSOLUTE
    ../fplib/microlib/fpfix.c                0x00000000   Number         0  dfixui.o ABSOLUTE
    ../fplib/microlib/fpfix.c                0x00000000   Number         0  dfixi.o ABSOLUTE
    ../fplib/microlib/fpfix.c                0x00000000   Number         0  dfixul.o ABSOLUTE
    ../fplib/microlib/fpflt.c                0x00000000   Number         0  dfltui.o ABSOLUTE
    ../fplib/microlib/fpmul.c                0x00000000   Number         0  dmul.o ABSOLUTE
    ..\..\HwLib\ETH_Driver\src\stm32f4x7_eth.c 0x00000000   Number         0  stm32f4x7_eth.o ABSOLUTE
    ..\..\HwLib\core\startup_stm32f40_41xxx.s 0x00000000   Number         0  startup_stm32f40_41xxx.o ABSOLUTE
    ..\..\HwLib\core\system_stm32f4xx.c      0x00000000   Number         0  system_stm32f4xx.o ABSOLUTE
    ..\..\HwLib\driver\src\misc.c            0x00000000   Number         0  misc.o ABSOLUTE
    ..\..\HwLib\driver\src\stm32f4xx_adc.c   0x00000000   Number         0  stm32f4xx_adc.o ABSOLUTE
    ..\..\HwLib\driver\src\stm32f4xx_can.c   0x00000000   Number         0  stm32f4xx_can.o ABSOLUTE
    ..\..\HwLib\driver\src\stm32f4xx_crc.c   0x00000000   Number         0  stm32f4xx_crc.o ABSOLUTE
    ..\..\HwLib\driver\src\stm32f4xx_cryp.c  0x00000000   Number         0  stm32f4xx_cryp.o ABSOLUTE
    ..\..\HwLib\driver\src\stm32f4xx_cryp_aes.c 0x00000000   Number         0  stm32f4xx_cryp_aes.o ABSOLUTE
    ..\..\HwLib\driver\src\stm32f4xx_cryp_des.c 0x00000000   Number         0  stm32f4xx_cryp_des.o ABSOLUTE
    ..\..\HwLib\driver\src\stm32f4xx_cryp_tdes.c 0x00000000   Number         0  stm32f4xx_cryp_tdes.o ABSOLUTE
    ..\..\HwLib\driver\src\stm32f4xx_dac.c   0x00000000   Number         0  stm32f4xx_dac.o ABSOLUTE
    ..\..\HwLib\driver\src\stm32f4xx_dbgmcu.c 0x00000000   Number         0  stm32f4xx_dbgmcu.o ABSOLUTE
    ..\..\HwLib\driver\src\stm32f4xx_dcmi.c  0x00000000   Number         0  stm32f4xx_dcmi.o ABSOLUTE
    ..\..\HwLib\driver\src\stm32f4xx_dma.c   0x00000000   Number         0  stm32f4xx_dma.o ABSOLUTE
    ..\..\HwLib\driver\src\stm32f4xx_dma2d.c 0x00000000   Number         0  stm32f4xx_dma2d.o ABSOLUTE
    ..\..\HwLib\driver\src\stm32f4xx_exti.c  0x00000000   Number         0  stm32f4xx_exti.o ABSOLUTE
    ..\..\HwLib\driver\src\stm32f4xx_flash.c 0x00000000   Number         0  stm32f4xx_flash.o ABSOLUTE
    ..\..\HwLib\driver\src\stm32f4xx_flash_ramfunc.c 0x00000000   Number         0  stm32f4xx_flash_ramfunc.o ABSOLUTE
    ..\..\HwLib\driver\src\stm32f4xx_fsmc.c  0x00000000   Number         0  stm32f4xx_fsmc.o ABSOLUTE
    ..\..\HwLib\driver\src\stm32f4xx_gpio.c  0x00000000   Number         0  stm32f4xx_gpio.o ABSOLUTE
    ..\..\HwLib\driver\src\stm32f4xx_hash.c  0x00000000   Number         0  stm32f4xx_hash.o ABSOLUTE
    ..\..\HwLib\driver\src\stm32f4xx_hash_md5.c 0x00000000   Number         0  stm32f4xx_hash_md5.o ABSOLUTE
    ..\..\HwLib\driver\src\stm32f4xx_hash_sha1.c 0x00000000   Number         0  stm32f4xx_hash_sha1.o ABSOLUTE
    ..\..\HwLib\driver\src\stm32f4xx_i2c.c   0x00000000   Number         0  stm32f4xx_i2c.o ABSOLUTE
    ..\..\HwLib\driver\src\stm32f4xx_iwdg.c  0x00000000   Number         0  stm32f4xx_iwdg.o ABSOLUTE
    ..\..\HwLib\driver\src\stm32f4xx_ltdc.c  0x00000000   Number         0  stm32f4xx_ltdc.o ABSOLUTE
    ..\..\HwLib\driver\src\stm32f4xx_pwr.c   0x00000000   Number         0  stm32f4xx_pwr.o ABSOLUTE
    ..\..\HwLib\driver\src\stm32f4xx_rcc.c   0x00000000   Number         0  stm32f4xx_rcc.o ABSOLUTE
    ..\..\HwLib\driver\src\stm32f4xx_rng.c   0x00000000   Number         0  stm32f4xx_rng.o ABSOLUTE
    ..\..\HwLib\driver\src\stm32f4xx_rtc.c   0x00000000   Number         0  stm32f4xx_rtc.o ABSOLUTE
    ..\..\HwLib\driver\src\stm32f4xx_sai.c   0x00000000   Number         0  stm32f4xx_sai.o ABSOLUTE
    ..\..\HwLib\driver\src\stm32f4xx_sdio.c  0x00000000   Number         0  stm32f4xx_sdio.o ABSOLUTE
    ..\..\HwLib\driver\src\stm32f4xx_spi.c   0x00000000   Number         0  stm32f4xx_spi.o ABSOLUTE
    ..\..\HwLib\driver\src\stm32f4xx_syscfg.c 0x00000000   Number         0  stm32f4xx_syscfg.o ABSOLUTE
    ..\..\HwLib\driver\src\stm32f4xx_tim.c   0x00000000   Number         0  stm32f4xx_tim.o ABSOLUTE
    ..\..\HwLib\driver\src\stm32f4xx_usart.c 0x00000000   Number         0  stm32f4xx_usart.o ABSOLUTE
    ..\..\HwLib\driver\src\stm32f4xx_wwdg.c  0x00000000   Number         0  stm32f4xx_wwdg.o ABSOLUTE
    ..\..\app\ScopeMain.c                    0x00000000   Number         0  scopemain.o ABSOLUTE
    ..\..\config\AD7799.c                    0x00000000   Number         0  ad7799.o ABSOLUTE
    ..\..\config\BufferCircle.c              0x00000000   Number         0  buffercircle.o ABSOLUTE
    ..\..\config\Fpga.c                      0x00000000   Number         0  fpga.o ABSOLUTE
    ..\..\config\InterruptBufferCircle.c     0x00000000   Number         0  interruptbuffercircle.o ABSOLUTE
    ..\..\config\NetBufferCircle.c           0x00000000   Number         0  netbuffercircle.o ABSOLUTE
    ..\..\config\SampleBufferCircle.c        0x00000000   Number         0  samplebuffercircle.o ABSOLUTE
    ..\..\config\Scope_Eval.c                0x00000000   Number         0  scope_eval.o ABSOLUTE
    ..\..\config\Scope_It.c                  0x00000000   Number         0  scope_it.o ABSOLUTE
    ..\..\config\Scope_Move.c                0x00000000   Number         0  scope_move.o ABSOLUTE
    ..\..\config\SpiFlash.c                  0x00000000   Number         0  spiflash.o ABSOLUTE
    ..\..\config\driver.c                    0x00000000   Number         0  driver.o ABSOLUTE
    ..\..\config\f4sys.c                     0x00000000   Number         0  f4sys.o ABSOLUTE
    ..\..\lwip-1.4.1\port\STM32F4x7\Standalone\ethernetif.c 0x00000000   Number         0  ethernetif.o ABSOLUTE
    ..\..\lwip-1.4.1\src\api\api_lib.c       0x00000000   Number         0  api_lib.o ABSOLUTE
    ..\..\lwip-1.4.1\src\api\api_msg.c       0x00000000   Number         0  api_msg.o ABSOLUTE
    ..\..\lwip-1.4.1\src\api\err.c           0x00000000   Number         0  err.o ABSOLUTE
    ..\..\lwip-1.4.1\src\api\netbuf.c        0x00000000   Number         0  netbuf.o ABSOLUTE
    ..\..\lwip-1.4.1\src\api\netdb.c         0x00000000   Number         0  netdb.o ABSOLUTE
    ..\..\lwip-1.4.1\src\api\netifapi.c      0x00000000   Number         0  netifapi.o ABSOLUTE
    ..\..\lwip-1.4.1\src\api\sockets.c       0x00000000   Number         0  sockets.o ABSOLUTE
    ..\..\lwip-1.4.1\src\api\tcpip.c         0x00000000   Number         0  tcpip.o ABSOLUTE
    ..\..\lwip-1.4.1\src\core\def.c          0x00000000   Number         0  def.o ABSOLUTE
    ..\..\lwip-1.4.1\src\core\dhcp.c         0x00000000   Number         0  dhcp.o ABSOLUTE
    ..\..\lwip-1.4.1\src\core\dns.c          0x00000000   Number         0  dns.o ABSOLUTE
    ..\..\lwip-1.4.1\src\core\init.c         0x00000000   Number         0  init.o ABSOLUTE
    ..\..\lwip-1.4.1\src\core\ipv4\autoip.c  0x00000000   Number         0  autoip.o ABSOLUTE
    ..\..\lwip-1.4.1\src\core\ipv4\icmp.c    0x00000000   Number         0  icmp.o ABSOLUTE
    ..\..\lwip-1.4.1\src\core\ipv4\igmp.c    0x00000000   Number         0  igmp.o ABSOLUTE
    ..\..\lwip-1.4.1\src\core\ipv4\inet.c    0x00000000   Number         0  inet.o ABSOLUTE
    ..\..\lwip-1.4.1\src\core\ipv4\inet_chksum.c 0x00000000   Number         0  inet_chksum.o ABSOLUTE
    ..\..\lwip-1.4.1\src\core\ipv4\ip.c      0x00000000   Number         0  ip.o ABSOLUTE
    ..\..\lwip-1.4.1\src\core\ipv4\ip_addr.c 0x00000000   Number         0  ip_addr.o ABSOLUTE
    ..\..\lwip-1.4.1\src\core\ipv4\ip_frag.c 0x00000000   Number         0  ip_frag.o ABSOLUTE
    ..\..\lwip-1.4.1\src\core\mem.c          0x00000000   Number         0  mem.o ABSOLUTE
    ..\..\lwip-1.4.1\src\core\memp.c         0x00000000   Number         0  memp.o ABSOLUTE
    ..\..\lwip-1.4.1\src\core\netif.c        0x00000000   Number         0  netif.o ABSOLUTE
    ..\..\lwip-1.4.1\src\core\pbuf.c         0x00000000   Number         0  pbuf.o ABSOLUTE
    ..\..\lwip-1.4.1\src\core\raw.c          0x00000000   Number         0  raw.o ABSOLUTE
    ..\..\lwip-1.4.1\src\core\stats.c        0x00000000   Number         0  stats.o ABSOLUTE
    ..\..\lwip-1.4.1\src\core\sys.c          0x00000000   Number         0  sys.o ABSOLUTE
    ..\..\lwip-1.4.1\src\core\tcp.c          0x00000000   Number         0  tcp.o ABSOLUTE
    ..\..\lwip-1.4.1\src\core\tcp_in.c       0x00000000   Number         0  tcp_in.o ABSOLUTE
    ..\..\lwip-1.4.1\src\core\tcp_out.c      0x00000000   Number         0  tcp_out.o ABSOLUTE
    ..\..\lwip-1.4.1\src\core\timers.c       0x00000000   Number         0  timers.o ABSOLUTE
    ..\..\lwip-1.4.1\src\core\udp.c          0x00000000   Number         0  udp.o ABSOLUTE
    ..\..\lwip-1.4.1\src\netif\etharp.c      0x00000000   Number         0  etharp.o ABSOLUTE
    ..\..\lwip_app\netconf.c                 0x00000000   Number         0  netconf.o ABSOLUTE
    ..\..\lwip_app\stm32f4x7_eth_bsp.c       0x00000000   Number         0  stm32f4x7_eth_bsp.o ABSOLUTE
    ..\..\lwip_app\udp_echoserver.c          0x00000000   Number         0  udp_echoserver.o ABSOLUTE
    ..\..\source\InterfaceScope.c            0x00000000   Number         0  interfacescope.o ABSOLUTE
    ..\..\source\ProcessScope.c              0x00000000   Number         0  processscope.o ABSOLUTE
    ..\..\source\Protocol.c                  0x00000000   Number         0  protocol.o ABSOLUTE
    ..\..\source\SamplingPort.c              0x00000000   Number         0  samplingport.o ABSOLUTE
    ..\..\source\StorageManagement.c         0x00000000   Number         0  storagemanagement.o ABSOLUTE
    ..\..\source\SystemScope.c               0x00000000   Number         0  systemscope.o ABSOLUTE
    ..\\..\\HwLib\\ETH_Driver\\src\\stm32f4x7_eth.c 0x00000000   Number         0  stm32f4x7_eth.o ABSOLUTE
    ..\\..\\HwLib\\core\\system_stm32f4xx.c  0x00000000   Number         0  system_stm32f4xx.o ABSOLUTE
    ..\\..\\HwLib\\driver\\src\\misc.c       0x00000000   Number         0  misc.o ABSOLUTE
    ..\\..\\HwLib\\driver\\src\\stm32f4xx_adc.c 0x00000000   Number         0  stm32f4xx_adc.o ABSOLUTE
    ..\\..\\HwLib\\driver\\src\\stm32f4xx_can.c 0x00000000   Number         0  stm32f4xx_can.o ABSOLUTE
    ..\\..\\HwLib\\driver\\src\\stm32f4xx_crc.c 0x00000000   Number         0  stm32f4xx_crc.o ABSOLUTE
    ..\\..\\HwLib\\driver\\src\\stm32f4xx_cryp.c 0x00000000   Number         0  stm32f4xx_cryp.o ABSOLUTE
    ..\\..\\HwLib\\driver\\src\\stm32f4xx_cryp_aes.c 0x00000000   Number         0  stm32f4xx_cryp_aes.o ABSOLUTE
    ..\\..\\HwLib\\driver\\src\\stm32f4xx_cryp_des.c 0x00000000   Number         0  stm32f4xx_cryp_des.o ABSOLUTE
    ..\\..\\HwLib\\driver\\src\\stm32f4xx_cryp_tdes.c 0x00000000   Number         0  stm32f4xx_cryp_tdes.o ABSOLUTE
    ..\\..\\HwLib\\driver\\src\\stm32f4xx_dac.c 0x00000000   Number         0  stm32f4xx_dac.o ABSOLUTE
    ..\\..\\HwLib\\driver\\src\\stm32f4xx_dbgmcu.c 0x00000000   Number         0  stm32f4xx_dbgmcu.o ABSOLUTE
    ..\\..\\HwLib\\driver\\src\\stm32f4xx_dcmi.c 0x00000000   Number         0  stm32f4xx_dcmi.o ABSOLUTE
    ..\\..\\HwLib\\driver\\src\\stm32f4xx_dma.c 0x00000000   Number         0  stm32f4xx_dma.o ABSOLUTE
    ..\\..\\HwLib\\driver\\src\\stm32f4xx_dma2d.c 0x00000000   Number         0  stm32f4xx_dma2d.o ABSOLUTE
    ..\\..\\HwLib\\driver\\src\\stm32f4xx_exti.c 0x00000000   Number         0  stm32f4xx_exti.o ABSOLUTE
    ..\\..\\HwLib\\driver\\src\\stm32f4xx_flash.c 0x00000000   Number         0  stm32f4xx_flash.o ABSOLUTE
    ..\\..\\HwLib\\driver\\src\\stm32f4xx_flash_ramfunc.c 0x00000000   Number         0  stm32f4xx_flash_ramfunc.o ABSOLUTE
    ..\\..\\HwLib\\driver\\src\\stm32f4xx_fsmc.c 0x00000000   Number         0  stm32f4xx_fsmc.o ABSOLUTE
    ..\\..\\HwLib\\driver\\src\\stm32f4xx_gpio.c 0x00000000   Number         0  stm32f4xx_gpio.o ABSOLUTE
    ..\\..\\HwLib\\driver\\src\\stm32f4xx_hash.c 0x00000000   Number         0  stm32f4xx_hash.o ABSOLUTE
    ..\\..\\HwLib\\driver\\src\\stm32f4xx_hash_md5.c 0x00000000   Number         0  stm32f4xx_hash_md5.o ABSOLUTE
    ..\\..\\HwLib\\driver\\src\\stm32f4xx_hash_sha1.c 0x00000000   Number         0  stm32f4xx_hash_sha1.o ABSOLUTE
    ..\\..\\HwLib\\driver\\src\\stm32f4xx_i2c.c 0x00000000   Number         0  stm32f4xx_i2c.o ABSOLUTE
    ..\\..\\HwLib\\driver\\src\\stm32f4xx_iwdg.c 0x00000000   Number         0  stm32f4xx_iwdg.o ABSOLUTE
    ..\\..\\HwLib\\driver\\src\\stm32f4xx_ltdc.c 0x00000000   Number         0  stm32f4xx_ltdc.o ABSOLUTE
    ..\\..\\HwLib\\driver\\src\\stm32f4xx_pwr.c 0x00000000   Number         0  stm32f4xx_pwr.o ABSOLUTE
    ..\\..\\HwLib\\driver\\src\\stm32f4xx_rcc.c 0x00000000   Number         0  stm32f4xx_rcc.o ABSOLUTE
    ..\\..\\HwLib\\driver\\src\\stm32f4xx_rng.c 0x00000000   Number         0  stm32f4xx_rng.o ABSOLUTE
    ..\\..\\HwLib\\driver\\src\\stm32f4xx_rtc.c 0x00000000   Number         0  stm32f4xx_rtc.o ABSOLUTE
    ..\\..\\HwLib\\driver\\src\\stm32f4xx_sai.c 0x00000000   Number         0  stm32f4xx_sai.o ABSOLUTE
    ..\\..\\HwLib\\driver\\src\\stm32f4xx_sdio.c 0x00000000   Number         0  stm32f4xx_sdio.o ABSOLUTE
    ..\\..\\HwLib\\driver\\src\\stm32f4xx_spi.c 0x00000000   Number         0  stm32f4xx_spi.o ABSOLUTE
    ..\\..\\HwLib\\driver\\src\\stm32f4xx_syscfg.c 0x00000000   Number         0  stm32f4xx_syscfg.o ABSOLUTE
    ..\\..\\HwLib\\driver\\src\\stm32f4xx_tim.c 0x00000000   Number         0  stm32f4xx_tim.o ABSOLUTE
    ..\\..\\HwLib\\driver\\src\\stm32f4xx_usart.c 0x00000000   Number         0  stm32f4xx_usart.o ABSOLUTE
    ..\\..\\HwLib\\driver\\src\\stm32f4xx_wwdg.c 0x00000000   Number         0  stm32f4xx_wwdg.o ABSOLUTE
    ..\\..\\app\\ScopeMain.c                 0x00000000   Number         0  scopemain.o ABSOLUTE
    ..\\..\\config\\AD7799.c                 0x00000000   Number         0  ad7799.o ABSOLUTE
    ..\\..\\config\\BufferCircle.c           0x00000000   Number         0  buffercircle.o ABSOLUTE
    ..\\..\\config\\Fpga.c                   0x00000000   Number         0  fpga.o ABSOLUTE
    ..\\..\\config\\InterruptBufferCircle.c  0x00000000   Number         0  interruptbuffercircle.o ABSOLUTE
    ..\\..\\config\\NetBufferCircle.c        0x00000000   Number         0  netbuffercircle.o ABSOLUTE
    ..\\..\\config\\SampleBufferCircle.c     0x00000000   Number         0  samplebuffercircle.o ABSOLUTE
    ..\\..\\config\\Scope_Eval.c             0x00000000   Number         0  scope_eval.o ABSOLUTE
    ..\\..\\config\\Scope_It.c               0x00000000   Number         0  scope_it.o ABSOLUTE
    ..\\..\\config\\Scope_Move.c             0x00000000   Number         0  scope_move.o ABSOLUTE
    ..\\..\\config\\driver.c                 0x00000000   Number         0  driver.o ABSOLUTE
    ..\\..\\config\\f4sys.c                  0x00000000   Number         0  f4sys.o ABSOLUTE
    ..\\..\\lwip-1.4.1\\port\\STM32F4x7\\Standalone\\ethernetif.c 0x00000000   Number         0  ethernetif.o ABSOLUTE
    ..\\..\\lwip_app\\netconf.c              0x00000000   Number         0  netconf.o ABSOLUTE
    ..\\..\\lwip_app\\stm32f4x7_eth_bsp.c    0x00000000   Number         0  stm32f4x7_eth_bsp.o ABSOLUTE
    ..\\..\\lwip_app\\udp_echoserver.c       0x00000000   Number         0  udp_echoserver.o ABSOLUTE
    ..\\..\\source\\InterfaceScope.c         0x00000000   Number         0  interfacescope.o ABSOLUTE
    ..\\..\\source\\ProcessScope.c           0x00000000   Number         0  processscope.o ABSOLUTE
    ..\\..\\source\\Protocol.c               0x00000000   Number         0  protocol.o ABSOLUTE
    ..\\..\\source\\SamplingPort.c           0x00000000   Number         0  samplingport.o ABSOLUTE
    ..\\..\\source\\StorageManagement.c      0x00000000   Number         0  storagemanagement.o ABSOLUTE
    ..\\..\\source\\SystemScope.c            0x00000000   Number         0  systemscope.o ABSOLUTE
    cdrcmple.s                               0x00000000   Number         0  cdrcmple.o ABSOLUTE
    dc.s                                     0x00000000   Number         0  dc.o ABSOLUTE
    handlers.s                               0x00000000   Number         0  handlers.o ABSOLUTE
    init.s                                   0x00000000   Number         0  init.o ABSOLUTE
    RESET                                    0x08000000   Section      392  startup_stm32f40_41xxx.o(RESET)
    .ARM.Collect$$$$00000000                 0x08000188   Section        0  entry.o(.ARM.Collect$$$$00000000)
    .ARM.Collect$$$$00000001                 0x08000188   Section        4  entry2.o(.ARM.Collect$$$$00000001)
    .ARM.Collect$$$$00000004                 0x0800018c   Section        4  entry5.o(.ARM.Collect$$$$00000004)
    .ARM.Collect$$$$00000008                 0x08000190   Section        0  entry7b.o(.ARM.Collect$$$$00000008)
    .ARM.Collect$$$$0000000A                 0x08000190   Section        0  entry8b.o(.ARM.Collect$$$$0000000A)
    .ARM.Collect$$$$0000000B                 0x08000190   Section        8  entry9a.o(.ARM.Collect$$$$0000000B)
    .ARM.Collect$$$$0000000D                 0x08000198   Section        0  entry10a.o(.ARM.Collect$$$$0000000D)
    .ARM.Collect$$$$0000000F                 0x08000198   Section        0  entry11a.o(.ARM.Collect$$$$0000000F)
    .ARM.Collect$$$$00002712                 0x08000198   Section        4  entry2.o(.ARM.Collect$$$$00002712)
    __lit__00000000                          0x08000198   Data           4  entry2.o(.ARM.Collect$$$$00002712)
    .text                                    0x0800019c   Section       36  init.o(.text)
    i.__scatterload_copy                     0x080001c0   Section       14  handlers.o(i.__scatterload_copy)
    i.__scatterload_null                     0x080001ce   Section        2  handlers.o(i.__scatterload_null)
    i.__scatterload_zeroinit                 0x080001d0   Section       14  handlers.o(i.__scatterload_zeroinit)
    .text                                    0x08008000   Section        0  scopemain.o(.text)
    .text                                    0x080081e0   Section        0  system_stm32f4xx.o(.text)
    SetSysClock                              0x08008295   Thumb Code   224  system_stm32f4xx.o(.text)
    .text                                    0x080084ac   Section       36  startup_stm32f40_41xxx.o(.text)
    $v0                                      0x080084ac   Number         0  startup_stm32f40_41xxx.o(.text)
    .text                                    0x080084d0   Section        0  systemscope.o(.text)
    .text                                    0x080086a4   Section        0  processscope.o(.text)
    .text                                    0x0800da18   Section        0  protocol.o(.text)
    .text                                    0x0800deb4   Section        0  interfacescope.o(.text)
    .text                                    0x0800fa48   Section        0  samplingport.o(.text)
    .text                                    0x0800fdac   Section        0  storagemanagement.o(.text)
    .text                                    0x0800ff3c   Section        0  stm32f4x7_eth.o(.text)
    .text                                    0x08011d6c   Section        0  misc.o(.text)
    .text                                    0x08011f48   Section        0  stm32f4xx_adc.o(.text)
    .text                                    0x08012fb8   Section        0  stm32f4xx_dac.o(.text)
    .text                                    0x080135b0   Section        0  stm32f4xx_dma.o(.text)
    .text                                    0x08014954   Section        0  stm32f4xx_exti.o(.text)
    .text                                    0x08014c4c   Section        0  stm32f4xx_flash.o(.text)
    .text                                    0x080156e0   Section        0  stm32f4xx_fsmc.o(.text)
    .text                                    0x08016528   Section        0  stm32f4xx_gpio.o(.text)
    .text                                    0x08016f38   Section        0  stm32f4xx_rcc.o(.text)
    .text                                    0x08017e98   Section        0  stm32f4xx_spi.o(.text)
    .text                                    0x08018c68   Section        0  stm32f4xx_syscfg.o(.text)
    .text                                    0x08018e04   Section        0  stm32f4xx_tim.o(.text)
    TI4_Config                               0x0801ab11   Thumb Code   128  stm32f4xx_tim.o(.text)
    TI3_Config                               0x0801abf3   Thumb Code    72  stm32f4xx_tim.o(.text)
    TI2_Config                               0x0801acb1   Thumb Code    80  stm32f4xx_tim.o(.text)
    TI1_Config                               0x0801ad87   Thumb Code    58  stm32f4xx_tim.o(.text)
    .text                                    0x0801c088   Section        0  stm32f4xx_usart.o(.text)
    .text                                    0x0801d1e4   Section        0  fpga.o(.text)
    .text                                    0x0801d55c   Section        0  scope_it.o(.text)
    .text                                    0x0801d7d0   Section        0  scope_eval.o(.text)
    NVIC_SetPriority                         0x0801d7d1   Thumb Code    32  scope_eval.o(.text)
    EVAL_OutputInit                          0x0801d88d   Thumb Code    62  scope_eval.o(.text)
    EVAL_ComInit                             0x0801d8cb   Thumb Code   234  scope_eval.o(.text)
    EVAL_InputInit                           0x0801dadf   Thumb Code   156  scope_eval.o(.text)
    .text                                    0x0801dc8c   Section        0  scope_move.o(.text)
    .text                                    0x0801e078   Section        0  buffercircle.o(.text)
    BUF_Send_GetLenConsume                   0x0801e107   Thumb Code   112  buffercircle.o(.text)
    BUF_Send_GetLenRemain                    0x0801e177   Thumb Code    26  buffercircle.o(.text)
    BUF_Recv_GetLenConsume                   0x0801e2db   Thumb Code   112  buffercircle.o(.text)
    BUF_Recv_GetLenRemain                    0x0801e34b   Thumb Code    26  buffercircle.o(.text)
    .text                                    0x0801e430   Section        0  netbuffercircle.o(.text)
    .text                                    0x0801e7e8   Section        0  samplebuffercircle.o(.text)
    SPG_Send_GetLenConsume                   0x0801e86f   Thumb Code   104  samplebuffercircle.o(.text)
    SPG_Send_GetLenRemain                    0x0801e8d7   Thumb Code    24  samplebuffercircle.o(.text)
    SPG_Recv_GetLenConsume                   0x0801ea2d   Thumb Code   104  samplebuffercircle.o(.text)
    SPG_Recv_GetLenRemain                    0x0801ea95   Thumb Code    24  samplebuffercircle.o(.text)
    .text                                    0x0801eb74   Section        0  driver.o(.text)
    .text                                    0x08020654   Section        0  ad7799.o(.text)
    .text                                    0x08020b10   Section        0  ethernetif.o(.text)
    low_level_init                           0x08020b11   Thumb Code   110  ethernetif.o(.text)
    low_level_output                         0x08020b7f   Thumb Code   214  ethernetif.o(.text)
    low_level_input                          0x08020c55   Thumb Code   216  ethernetif.o(.text)
    .text                                    0x08020da0   Section        0  etharp.o(.text)
    etharp_free_entry                        0x08020da1   Thumb Code    58  etharp.o(.text)
    etharp_find_entry                        0x08020e63   Thumb Code   348  etharp.o(.text)
    etharp_send_ip                           0x08020fbf   Thumb Code    56  etharp.o(.text)
    etharp_update_arp_entry                  0x08020ff7   Thumb Code   178  etharp.o(.text)
    etharp_arp_input                         0x0802112f   Thumb Code   272  etharp.o(.text)
    etharp_raw                               0x0802123f   Thumb Code   178  etharp.o(.text)
    etharp_output_to_arp_index               0x08021315   Thumb Code   104  etharp.o(.text)
    .text                                    0x080216cc   Section        0  icmp.o(.text)
    icmp_send_response                       0x08021821   Thumb Code   112  icmp.o(.text)
    .text                                    0x080218bc   Section        0  inet_chksum.o(.text)
    lwip_standard_chksum                     0x080218bd   Thumb Code    94  inet_chksum.o(.text)
    .text                                    0x08021ae0   Section        0  ip.o(.text)
    .text                                    0x08021de8   Section        0  ip_addr.o(.text)
    .text                                    0x0802209c   Section        0  ip_frag.o(.text)
    ip_reass_dequeue_datagram                0x0802209d   Thumb Code    40  ip_frag.o(.text)
    ip_reass_free_complete_datagram          0x080220c5   Thumb Code   156  ip_frag.o(.text)
    ip_reass_remove_oldest_datagram          0x08022191   Thumb Code   118  ip_frag.o(.text)
    ip_reass_enqueue_new_datagram            0x08022207   Thumb Code    80  ip_frag.o(.text)
    ip_reass_chain_frag_into_datagram_and_validate 0x08022257   Thumb Code   352  ip_frag.o(.text)
    ip_frag_alloc_pbuf_custom_ref            0x08022543   Thumb Code    10  ip_frag.o(.text)
    ip_frag_free_pbuf_custom_ref             0x0802254d   Thumb Code    18  ip_frag.o(.text)
    ipfrag_free_pbuf_custom                  0x0802255f   Thumb Code    32  ip_frag.o(.text)
    .text                                    0x08022730   Section        0  def.o(.text)
    .text                                    0x08022770   Section        0  dhcp.o(.text)
    dhcp_delete_msg                          0x08022771   Thumb Code    40  dhcp.o(.text)
    dhcp_option_trailer                      0x08022799   Thumb Code    70  dhcp.o(.text)
    dhcp_option_byte                         0x080227df   Thumb Code    18  dhcp.o(.text)
    dhcp_option                              0x080227f1   Thumb Code    32  dhcp.o(.text)
    dhcp_option_short                        0x08022811   Thumb Code    34  dhcp.o(.text)
    dhcp_create_msg                          0x08022833   Thumb Code   318  dhcp.o(.text)
    dhcp_set_state                           0x08022971   Thumb Code    16  dhcp.o(.text)
    dhcp_discover                            0x08022981   Thumb Code   190  dhcp.o(.text)
    dhcp_handle_nak                          0x08022a3f   Thumb Code    52  dhcp.o(.text)
    dhcp_check                               0x08022a73   Thumb Code    56  dhcp.o(.text)
    dhcp_option_long                         0x08022aab   Thumb Code    66  dhcp.o(.text)
    dhcp_select                              0x08022aed   Thumb Code   240  dhcp.o(.text)
    dhcp_handle_offer                        0x08022bdd   Thumb Code    36  dhcp.o(.text)
    dhcp_t1_timeout                          0x08022ca1   Thumb Code    32  dhcp.o(.text)
    dhcp_rebind                              0x08022cc1   Thumb Code   132  dhcp.o(.text)
    dhcp_t2_timeout                          0x08022d45   Thumb Code    32  dhcp.o(.text)
    dhcp_reboot                              0x08022da3   Thumb Code   164  dhcp.o(.text)
    dhcp_bind                                0x08022ee9   Thumb Code   228  dhcp.o(.text)
    dhcp_timeout                             0x08022fcd   Thumb Code   164  dhcp.o(.text)
    dhcp_handle_ack                          0x080230b1   Thumb Code   134  dhcp.o(.text)
    dhcp_parse_reply                         0x080231a7   Thumb Code   780  dhcp.o(.text)
    dhcp_recv                                0x080234b3   Thumb Code   256  dhcp.o(.text)
    dhcp_decline                             0x0802377b   Thumb Code   126  dhcp.o(.text)
    .text                                    0x0802383c   Section        0  mem.o(.text)
    plug_holes                               0x0802383d   Thumb Code   124  mem.o(.text)
    .text                                    0x08023b78   Section        0  memp.o(.text)
    .text                                    0x08023c20   Section        0  netif.o(.text)
    .text                                    0x08023ecc   Section        0  pbuf.o(.text)
    .text                                    0x08024608   Section        0  raw.o(.text)
    .text                                    0x080247b8   Section        0  tcp.o(.text)
    tcp_close_shutdown                       0x08024bdb   Thumb Code   472  tcp.o(.text)
    tcp_new_port                             0x080250c3   Thumb Code    96  tcp.o(.text)
    tcp_accept_null                          0x080251b1   Thumb Code     8  tcp.o(.text)
    tcp_kill_prio                            0x0802540d   Thumb Code    76  tcp.o(.text)
    tcp_kill_timewait                        0x08025459   Thumb Code    50  tcp.o(.text)
    .text                                    0x080255d0   Section        0  tcp_in.o(.text)
    tcp_receive                              0x080255d1   Thumb Code  1592  tcp_in.o(.text)
    tcp_parseopt                             0x08025c09   Thumb Code   178  tcp_in.o(.text)
    tcp_process                              0x08025cbb   Thumb Code  1374  tcp_in.o(.text)
    tcp_listen_input                         0x08026219   Thumb Code   320  tcp_in.o(.text)
    tcp_timewait_input                       0x08026359   Thumb Code   140  tcp_in.o(.text)
    .text                                    0x0802687c   Section        0  tcp_out.o(.text)
    tcp_output_alloc_header                  0x0802687d   Thumb Code   120  tcp_out.o(.text)
    tcp_create_segment                       0x080268f5   Thumb Code   172  tcp_out.o(.text)
    tcp_pbuf_prealloc                        0x08026afb   Thumb Code   120  tcp_out.o(.text)
    tcp_write_checks                         0x08026b73   Thumb Code   112  tcp_out.o(.text)
    tcp_output_segment                       0x08026fb7   Thumb Code   200  tcp_out.o(.text)
    .text                                    0x080274aa   Section        0  timers.o(.text)
    .text                                    0x080274ac   Section        0  udp.o(.text)
    udp_new_port                             0x080274af   Thumb Code    80  udp.o(.text)
    .text                                    0x0802792c   Section        0  netconf.o(.text)
    .text                                    0x08027a9c   Section        0  stm32f4x7_eth_bsp.o(.text)
    ETH_MACDMA_Config                        0x08027a9d   Thumb Code   152  stm32f4x7_eth_bsp.o(.text)
    ETH_GPIO_Config                          0x08027b35   Thumb Code   194  stm32f4x7_eth_bsp.o(.text)
    .text                                    0x08027ed4   Section        0  udp_echoserver.o(.text)
    .text                                    0x08028130   Section        0  memcpya.o(.text)
    .text                                    0x08028154   Section        0  memseta.o(.text)
    .text                                    0x08028178   Section        0  strncpy.o(.text)
    .text                                    0x08028190   Section        0  strlen.o(.text)
    .text                                    0x0802819e   Section        0  memcmp.o(.text)
    .text                                    0x080281b8   Section        0  dadd.o(.text)
    .text                                    0x08028306   Section        0  dmul.o(.text)
    .text                                    0x080283ea   Section        0  dfltui.o(.text)
    .text                                    0x08028404   Section        0  dfixi.o(.text)
    .text                                    0x08028442   Section        0  dfixui.o(.text)
    .text                                    0x08028474   Section       40  cdrcmple.o(.text)
    .text                                    0x0802849c   Section        0  uldiv.o(.text)
    .text                                    0x080284fe   Section        0  llshl.o(.text)
    .text                                    0x0802851c   Section        0  llushr.o(.text)
    .text                                    0x0802853c   Section        0  llsshr.o(.text)
    .text                                    0x08028560   Section        0  iusefp.o(.text)
    .text                                    0x08028560   Section        0  depilogue.o(.text)
    .text                                    0x0802861e   Section        0  __dczerorl2.o(.text)
    i.__0printf$8                            0x0802867c   Section        0  printf8.o(i.__0printf$8)
    i.__0sprintf$8                           0x0802869c   Section        0  printf8.o(i.__0sprintf$8)
    i._printf_core                           0x080286c4   Section        0  printf8.o(i._printf_core)
    _printf_core                             0x080286c5   Thumb Code   988  printf8.o(i._printf_core)
    i._printf_post_padding                   0x08028acc   Section        0  printf8.o(i._printf_post_padding)
    _printf_post_padding                     0x08028acd   Thumb Code    38  printf8.o(i._printf_post_padding)
    i._printf_pre_padding                    0x08028af2   Section        0  printf8.o(i._printf_pre_padding)
    _printf_pre_padding                      0x08028af3   Thumb Code    48  printf8.o(i._printf_pre_padding)
    i._sputc                                 0x08028b22   Section        0  printf8.o(i._sputc)
    _sputc                                   0x08028b23   Thumb Code    10  printf8.o(i._sputc)
    .constdata                               0x08028b2c   Section      192  systemscope.o(.constdata)
    m_nConstBitsMap                          0x08028b2c   Data         128  systemscope.o(.constdata)
    m_nConstErrorMap                         0x08028bac   Data          64  systemscope.o(.constdata)
    .constdata                               0x08028bec   Section     3492  processscope.o(.constdata)
    .constdata                               0x08029990   Section      152  interfacescope.o(.constdata)
    .constdata                               0x08029a28   Section       28  stm32f4xx_fsmc.o(.constdata)
    .constdata                               0x08029a44   Section      308  scope_eval.o(.constdata)
    .constdata                               0x08029b78   Section       16  scope_move.o(.constdata)
    m_acnDirPos                              0x08029b78   Data           8  scope_move.o(.constdata)
    m_acnDirNeg                              0x08029b80   Data           8  scope_move.o(.constdata)
    .constdata                               0x08029b88   Section       16  driver.o(.constdata)
    .constdata                               0x08029b98   Section       12  etharp.o(.constdata)
    .constdata                               0x08029ba4   Section        8  ip_addr.o(.constdata)
    .constdata                               0x08029bac   Section       36  memp.o(.constdata)
    memp_sizes                               0x08029bac   Data          18  memp.o(.constdata)
    memp_num                                 0x08029bbe   Data          18  memp.o(.constdata)
    .constdata                               0x08029bd0   Section       80  tcp.o(.constdata)
    .constdata                               0x08029c20   Section       75  udp_echoserver.o(.constdata)
    .conststring                             0x08029c6b   Section      104  tcp.o(.conststring)
    .data                                    0x20000000   Section       20  system_stm32f4xx.o(.data)
    .data                                    0x20000014   Section       24  systemscope.o(.data)
    .data                                    0x2000002c   Section       21  processscope.o(.data)
    Num                                      0x20000030   Data           4  processscope.o(.data)
    .data                                    0x20000041   Section        2  protocol.o(.data)
    m_NET_chBeBusy                           0x20000041   Data           1  protocol.o(.data)
    m_NET_tRecvBufStatus                     0x20000042   Data           1  protocol.o(.data)
    .data                                    0x20000044   Section      530  interfacescope.o(.data)
    m_nIoValves                              0x20000244   Data           2  interfacescope.o(.data)
    s_nDataLen                               0x20000246   Data           2  interfacescope.o(.data)
    s_nStatus                                0x20000248   Data           2  interfacescope.o(.data)
    s_nK                                     0x2000024c   Data           4  interfacescope.o(.data)
    s_nB                                     0x20000250   Data           4  interfacescope.o(.data)
    nValue                                   0x20000254   Data           2  interfacescope.o(.data)
    .data                                    0x20000256   Section       10  samplingport.o(.data)
    m_nTimeCount                             0x20000256   Data           2  samplingport.o(.data)
    ch                                       0x20000258   Data           1  samplingport.o(.data)
    nComandIndex                             0x2000025a   Data           2  samplingport.o(.data)
    m_tRecvBufStatus                         0x2000025c   Data           4  samplingport.o(.data)
    .data                                    0x20000260   Section       16  stm32f4x7_eth.o(.data)
    .data                                    0x20000270   Section       16  stm32f4xx_rcc.o(.data)
    APBAHBPrescTable                         0x20000270   Data          16  stm32f4xx_rcc.o(.data)
    .data                                    0x20000280   Section       20  scope_it.o(.data)
    m_nSysTicks                              0x20000280   Data           4  scope_it.o(.data)
    m_nSysTicksEnd                           0x20000284   Data           4  scope_it.o(.data)
    m_nTickList                              0x20000288   Data           4  scope_it.o(.data)
    m_nTickAdc                               0x2000028c   Data           4  scope_it.o(.data)
    s_count                                  0x20000290   Data           4  scope_it.o(.data)
    .data                                    0x20000294   Section        8  buffercircle.o(.data)
    m_send_tBufStatus                        0x20000294   Data           4  buffercircle.o(.data)
    m_recv_tBufStatus                        0x20000298   Data           4  buffercircle.o(.data)
    .data                                    0x2000029c   Section        8  netbuffercircle.o(.data)
    m_send_tBufStatus                        0x2000029c   Data           4  netbuffercircle.o(.data)
    m_recv_tBufStatus                        0x200002a0   Data           4  netbuffercircle.o(.data)
    .data                                    0x200002a4   Section        8  samplebuffercircle.o(.data)
    m_send_tBufStatus                        0x200002a4   Data           4  samplebuffercircle.o(.data)
    m_recv_tBufStatus                        0x200002a8   Data           4  samplebuffercircle.o(.data)
    .data                                    0x200002ac   Section        1  driver.o(.data)
    .data                                    0x200002ad   Section        1  etharp.o(.data)
    etharp_cached_entry                      0x200002ad   Data           1  etharp.o(.data)
    .data                                    0x200002b0   Section       18  ip.o(.data)
    ip_id                                    0x200002c0   Data           2  ip.o(.data)
    .data                                    0x200002c4   Section        6  ip_frag.o(.data)
    reassdatagrams                           0x200002c4   Data           4  ip_frag.o(.data)
    ip_reass_pbufcount                       0x200002c8   Data           2  ip_frag.o(.data)
    .data                                    0x200002cc   Section        4  dhcp.o(.data)
    xid                                      0x200002cc   Data           4  dhcp.o(.data)
    .data                                    0x200002d0   Section       12  mem.o(.data)
    ram                                      0x200002d0   Data           4  mem.o(.data)
    ram_end                                  0x200002d4   Data           4  mem.o(.data)
    lfree                                    0x200002d8   Data           4  mem.o(.data)
    .data                                    0x200002dc   Section        9  netif.o(.data)
    netif_num                                0x200002e4   Data           1  netif.o(.data)
    .data                                    0x200002e8   Section        4  raw.o(.data)
    raw_pcbs                                 0x200002e8   Data           4  raw.o(.data)
    .data                                    0x200002ec   Section       35  tcp.o(.data)
    tcp_port                                 0x200002ec   Data           2  tcp.o(.data)
    iss                                      0x200002f0   Data           4  tcp.o(.data)
    tcp_timer                                0x2000030d   Data           1  tcp.o(.data)
    tcp_timer_ctr                            0x2000030e   Data           1  tcp.o(.data)
    .data                                    0x20000310   Section       32  tcp_in.o(.data)
    tcphdr                                   0x20000310   Data           4  tcp_in.o(.data)
    iphdr                                    0x20000314   Data           4  tcp_in.o(.data)
    seqno                                    0x20000318   Data           4  tcp_in.o(.data)
    ackno                                    0x2000031c   Data           4  tcp_in.o(.data)
    flags                                    0x20000320   Data           1  tcp_in.o(.data)
    tcplen                                   0x20000322   Data           2  tcp_in.o(.data)
    recv_flags                               0x20000324   Data           1  tcp_in.o(.data)
    recv_data                                0x20000328   Data           4  tcp_in.o(.data)
    .data                                    0x20000330   Section        8  udp.o(.data)
    udp_port                                 0x20000330   Data           2  udp.o(.data)
    .data                                    0x20000338   Section       12  netconf.o(.data)
    .data                                    0x20000344   Section        4  stm32f4x7_eth_bsp.o(.data)
    .data                                    0x20000348   Section       12  udp_echoserver.o(.data)
    .data                                    0x20000354   Section        4  stdout.o(.data)
    .bss                                     0x20000358   Section      146  systemscope.o(.bss)
    .bss                                     0x200003ec   Section     2080  processscope.o(.bss)
    .bss                                     0x20000c0c   Section     3256  protocol.o(.bss)
    .bss                                     0x200018c4   Section     3000  interfacescope.o(.bss)
    s_anBufNet                               0x200018c4   Data        3000  interfacescope.o(.bss)
    .bss                                     0x2000247c   Section       80  samplingport.o(.bss)
    .bss                                     0x200024cc   Section       28  storagemanagement.o(.bss)
    .bss                                     0x200024e8   Section    24908  stm32f4x7_eth.o(.bss)
    .bss                                     0x20008634   Section       48  scope_move.o(.bss)
    .bss                                     0x20008664   Section     2500  buffercircle.o(.bss)
    m_send_achBufferCircle                   0x20008664   Data        2000  buffercircle.o(.bss)
    m_recv_achBufferCircle                   0x20008e34   Data         500  buffercircle.o(.bss)
    .bss                                     0x20009028   Section     3200  netbuffercircle.o(.bss)
    m_send_achBufferCircle                   0x20009028   Data        1600  netbuffercircle.o(.bss)
    m_recv_achBufferCircle                   0x20009668   Data        1600  netbuffercircle.o(.bss)
    .bss                                     0x20009ca8   Section      200  samplebuffercircle.o(.bss)
    m_send_achBufferCircle                   0x20009ca8   Data         100  samplebuffercircle.o(.bss)
    m_recv_achBufferCircle                   0x20009d0c   Data         100  samplebuffercircle.o(.bss)
    .bss                                     0x20009d70   Section      200  etharp.o(.bss)
    arp_table                                0x20009d70   Data         200  etharp.o(.bss)
    .bss                                     0x20009e38   Section       16  ip_addr.o(.bss)
    str                                      0x20009e38   Data          16  ip_addr.o(.bss)
    .bss                                     0x20009e48   Section       50  dhcp.o(.bss)
    .bss                                     0x20009e7a   Section    10260  mem.o(.bss)
    .bss                                     0x2000c690   Section    19463  memp.o(.bss)
    memp_tab                                 0x2000c690   Data          36  memp.o(.bss)
    memp_memory                              0x2000c6b4   Data       19427  memp.o(.bss)
    .bss                                     0x20011298   Section       16  tcp_in.o(.bss)
    inseg                                    0x20011298   Data          16  tcp_in.o(.bss)
    .bss                                     0x200112a8   Section       56  netconf.o(.bss)
    .bss                                     0x200112e0   Section      188  stm32f4x7_eth_bsp.o(.bss)
    STACK                                    0x200113a0   Section    16384  startup_stm32f40_41xxx.o(STACK)

    Global Symbols

    Symbol Name                              Value     Ov Type        Size  Object(Section)

    BuildAttributes$$THM_ISAv4$E$P$D$K$B$S$7EM$VFPi3$EXTD16$VFPS$VFMA$PE$A:L22UL41UL21$X:L11$S22US41US21$IEEE1$IW$USESV6$~STKCKD$USESV7$~SHL$OSPACE$ROPI$EBA8$MICROLIB$REQ8$PRES8$EABIv2 0x00000000   Number         0  anon$$obj.o ABSOLUTE
    __ARM_use_no_argv                        0x00000000   Number         0  scopemain.o ABSOLUTE
    _printf_a                                0x00000000   Number         0  stubs.o ABSOLUTE
    _printf_c                                0x00000000   Number         0  stubs.o ABSOLUTE
    _printf_charcount                        0x00000000   Number         0  stubs.o ABSOLUTE
    _printf_d                                0x00000000   Number         0  stubs.o ABSOLUTE
    _printf_e                                0x00000000   Number         0  stubs.o ABSOLUTE
    _printf_f                                0x00000000   Number         0  stubs.o ABSOLUTE
    _printf_flags                            0x00000000   Number         0  stubs.o ABSOLUTE
    _printf_fp_dec                           0x00000000   Number         0  stubs.o ABSOLUTE
    _printf_fp_hex                           0x00000000   Number         0  stubs.o ABSOLUTE
    _printf_g                                0x00000000   Number         0  stubs.o ABSOLUTE
    _printf_i                                0x00000000   Number         0  stubs.o ABSOLUTE
    _printf_int_dec                          0x00000000   Number         0  stubs.o ABSOLUTE
    _printf_l                                0x00000000   Number         0  stubs.o ABSOLUTE
    _printf_lc                               0x00000000   Number         0  stubs.o ABSOLUTE
    _printf_ll                               0x00000000   Number         0  stubs.o ABSOLUTE
    _printf_lld                              0x00000000   Number         0  stubs.o ABSOLUTE
    _printf_lli                              0x00000000   Number         0  stubs.o ABSOLUTE
    _printf_llo                              0x00000000   Number         0  stubs.o ABSOLUTE
    _printf_llu                              0x00000000   Number         0  stubs.o ABSOLUTE
    _printf_llx                              0x00000000   Number         0  stubs.o ABSOLUTE
    _printf_longlong_dec                     0x00000000   Number         0  stubs.o ABSOLUTE
    _printf_longlong_hex                     0x00000000   Number         0  stubs.o ABSOLUTE
    _printf_longlong_oct                     0x00000000   Number         0  stubs.o ABSOLUTE
    _printf_ls                               0x00000000   Number         0  stubs.o ABSOLUTE
    _printf_mbtowc                           0x00000000   Number         0  stubs.o ABSOLUTE
    _printf_n                                0x00000000   Number         0  stubs.o ABSOLUTE
    _printf_o                                0x00000000   Number         0  stubs.o ABSOLUTE
    _printf_p                                0x00000000   Number         0  stubs.o ABSOLUTE
    _printf_percent                          0x00000000   Number         0  stubs.o ABSOLUTE
    _printf_pre_padding                      0x00000000   Number         0  stubs.o ABSOLUTE
    _printf_return_value                     0x00000000   Number         0  stubs.o ABSOLUTE
    _printf_s                                0x00000000   Number         0  stubs.o ABSOLUTE
    _printf_sizespec                         0x00000000   Number         0  stubs.o ABSOLUTE
    _printf_str                              0x00000000   Number         0  stubs.o ABSOLUTE
    _printf_truncate_signed                  0x00000000   Number         0  stubs.o ABSOLUTE
    _printf_truncate_unsigned                0x00000000   Number         0  stubs.o ABSOLUTE
    _printf_u                                0x00000000   Number         0  stubs.o ABSOLUTE
    _printf_wc                               0x00000000   Number         0  stubs.o ABSOLUTE
    _printf_wctomb                           0x00000000   Number         0  stubs.o ABSOLUTE
    _printf_widthprec                        0x00000000   Number         0  stubs.o ABSOLUTE
    _printf_x                                0x00000000   Number         0  stubs.o ABSOLUTE
    __cpp_initialize__aeabi_                  - Undefined Weak Reference
    __cxa_finalize                            - Undefined Weak Reference
    _clock_init                               - Undefined Weak Reference
    _microlib_exit                            - Undefined Weak Reference
    __Vectors_Size                           0x00000188   Number         0  startup_stm32f40_41xxx.o ABSOLUTE
    __Vectors                                0x08000000   Data           4  startup_stm32f40_41xxx.o(RESET)
    __Vectors_End                            0x08000188   Data           0  startup_stm32f40_41xxx.o(RESET)
    __main                                   0x08000189   Thumb Code     0  entry.o(.ARM.Collect$$$$00000000)
    _main_stk                                0x08000189   Thumb Code     0  entry2.o(.ARM.Collect$$$$00000001)
    _main_scatterload                        0x0800018d   Thumb Code     0  entry5.o(.ARM.Collect$$$$00000004)
    __main_after_scatterload                 0x08000191   Thumb Code     0  entry5.o(.ARM.Collect$$$$00000004)
    _main_clock                              0x08000191   Thumb Code     0  entry7b.o(.ARM.Collect$$$$00000008)
    _main_cpp_init                           0x08000191   Thumb Code     0  entry8b.o(.ARM.Collect$$$$0000000A)
    _main_init                               0x08000191   Thumb Code     0  entry9a.o(.ARM.Collect$$$$0000000B)
    __rt_final_cpp                           0x08000199   Thumb Code     0  entry10a.o(.ARM.Collect$$$$0000000D)
    __rt_final_exit                          0x08000199   Thumb Code     0  entry11a.o(.ARM.Collect$$$$0000000F)
    __scatterload                            0x0800019d   Thumb Code    28  init.o(.text)
    __scatterload_rt2                        0x0800019d   Thumb Code     0  init.o(.text)
    __scatterload_copy                       0x080001c1   Thumb Code    14  handlers.o(i.__scatterload_copy)
    __scatterload_null                       0x080001cf   Thumb Code     2  handlers.o(i.__scatterload_null)
    __scatterload_zeroinit                   0x080001d1   Thumb Code    14  handlers.o(i.__scatterload_zeroinit)
    Region$$Table$$Base                      0x080001e0   Number         0  anon$$obj.o(Region$$Table)
    Region$$Table$$Limit                     0x08000200   Number         0  anon$$obj.o(Region$$Table)
    start_run                                0x08008001   Thumb Code   198  scopemain.o(.text)
    test                                     0x080080c7   Thumb Code     2  scopemain.o(.text)
    main                                     0x080080c9   Thumb Code    62  scopemain.o(.text)
    HSI_Init                                 0x080081e1   Thumb Code   180  system_stm32f4xx.o(.text)
    SystemInit                               0x08008375   Thumb Code    88  system_stm32f4xx.o(.text)
    SystemCoreClockUpdate                    0x080083cd   Thumb Code   174  system_stm32f4xx.o(.text)
    Reset_Handler                            0x080084ad   Thumb Code     8  startup_stm32f40_41xxx.o(.text)
    NMI_Handler                              0x080084b5   Thumb Code     2  startup_stm32f40_41xxx.o(.text)
    HardFault_Handler                        0x080084b7   Thumb Code     2  startup_stm32f40_41xxx.o(.text)
    MemManage_Handler                        0x080084b9   Thumb Code     2  startup_stm32f40_41xxx.o(.text)
    BusFault_Handler                         0x080084bb   Thumb Code     2  startup_stm32f40_41xxx.o(.text)
    UsageFault_Handler                       0x080084bd   Thumb Code     2  startup_stm32f40_41xxx.o(.text)
    SVC_Handler                              0x080084bf   Thumb Code     2  startup_stm32f40_41xxx.o(.text)
    DebugMon_Handler                         0x080084c1   Thumb Code     2  startup_stm32f40_41xxx.o(.text)
    PendSV_Handler                           0x080084c3   Thumb Code     2  startup_stm32f40_41xxx.o(.text)
    ADC_IRQHandler                           0x080084c7   Thumb Code     0  startup_stm32f40_41xxx.o(.text)
    CAN1_RX0_IRQHandler                      0x080084c7   Thumb Code     0  startup_stm32f40_41xxx.o(.text)
    CAN1_RX1_IRQHandler                      0x080084c7   Thumb Code     0  startup_stm32f40_41xxx.o(.text)
    CAN1_SCE_IRQHandler                      0x080084c7   Thumb Code     0  startup_stm32f40_41xxx.o(.text)
    CAN1_TX_IRQHandler                       0x080084c7   Thumb Code     0  startup_stm32f40_41xxx.o(.text)
    CAN2_RX0_IRQHandler                      0x080084c7   Thumb Code     0  startup_stm32f40_41xxx.o(.text)
    CAN2_RX1_IRQHandler                      0x080084c7   Thumb Code     0  startup_stm32f40_41xxx.o(.text)
    CAN2_SCE_IRQHandler                      0x080084c7   Thumb Code     0  startup_stm32f40_41xxx.o(.text)
    CAN2_TX_IRQHandler                       0x080084c7   Thumb Code     0  startup_stm32f40_41xxx.o(.text)
    CRYP_IRQHandler                          0x080084c7   Thumb Code     0  startup_stm32f40_41xxx.o(.text)
    DCMI_IRQHandler                          0x080084c7   Thumb Code     0  startup_stm32f40_41xxx.o(.text)
    DMA1_Stream0_IRQHandler                  0x080084c7   Thumb Code     0  startup_stm32f40_41xxx.o(.text)
    DMA1_Stream1_IRQHandler                  0x080084c7   Thumb Code     0  startup_stm32f40_41xxx.o(.text)
    DMA1_Stream2_IRQHandler                  0x080084c7   Thumb Code     0  startup_stm32f40_41xxx.o(.text)
    DMA1_Stream3_IRQHandler                  0x080084c7   Thumb Code     0  startup_stm32f40_41xxx.o(.text)
    DMA1_Stream4_IRQHandler                  0x080084c7   Thumb Code     0  startup_stm32f40_41xxx.o(.text)
    DMA1_Stream5_IRQHandler                  0x080084c7   Thumb Code     0  startup_stm32f40_41xxx.o(.text)
    DMA1_Stream6_IRQHandler                  0x080084c7   Thumb Code     0  startup_stm32f40_41xxx.o(.text)
    DMA1_Stream7_IRQHandler                  0x080084c7   Thumb Code     0  startup_stm32f40_41xxx.o(.text)
    DMA2_Stream1_IRQHandler                  0x080084c7   Thumb Code     0  startup_stm32f40_41xxx.o(.text)
    DMA2_Stream2_IRQHandler                  0x080084c7   Thumb Code     0  startup_stm32f40_41xxx.o(.text)
    DMA2_Stream4_IRQHandler                  0x080084c7   Thumb Code     0  startup_stm32f40_41xxx.o(.text)
    DMA2_Stream5_IRQHandler                  0x080084c7   Thumb Code     0  startup_stm32f40_41xxx.o(.text)
    DMA2_Stream6_IRQHandler                  0x080084c7   Thumb Code     0  startup_stm32f40_41xxx.o(.text)
    DMA2_Stream7_IRQHandler                  0x080084c7   Thumb Code     0  startup_stm32f40_41xxx.o(.text)
    ETH_IRQHandler                           0x080084c7   Thumb Code     0  startup_stm32f40_41xxx.o(.text)
    ETH_WKUP_IRQHandler                      0x080084c7   Thumb Code     0  startup_stm32f40_41xxx.o(.text)
    EXTI0_IRQHandler                         0x080084c7   Thumb Code     0  startup_stm32f40_41xxx.o(.text)
    EXTI15_10_IRQHandler                     0x080084c7   Thumb Code     0  startup_stm32f40_41xxx.o(.text)
    EXTI1_IRQHandler                         0x080084c7   Thumb Code     0  startup_stm32f40_41xxx.o(.text)
    EXTI2_IRQHandler                         0x080084c7   Thumb Code     0  startup_stm32f40_41xxx.o(.text)
    EXTI3_IRQHandler                         0x080084c7   Thumb Code     0  startup_stm32f40_41xxx.o(.text)
    EXTI4_IRQHandler                         0x080084c7   Thumb Code     0  startup_stm32f40_41xxx.o(.text)
    EXTI9_5_IRQHandler                       0x080084c7   Thumb Code     0  startup_stm32f40_41xxx.o(.text)
    FLASH_IRQHandler                         0x080084c7   Thumb Code     0  startup_stm32f40_41xxx.o(.text)
    FPU_IRQHandler                           0x080084c7   Thumb Code     0  startup_stm32f40_41xxx.o(.text)
    FSMC_IRQHandler                          0x080084c7   Thumb Code     0  startup_stm32f40_41xxx.o(.text)
    HASH_RNG_IRQHandler                      0x080084c7   Thumb Code     0  startup_stm32f40_41xxx.o(.text)
    I2C1_ER_IRQHandler                       0x080084c7   Thumb Code     0  startup_stm32f40_41xxx.o(.text)
    I2C1_EV_IRQHandler                       0x080084c7   Thumb Code     0  startup_stm32f40_41xxx.o(.text)
    I2C2_ER_IRQHandler                       0x080084c7   Thumb Code     0  startup_stm32f40_41xxx.o(.text)
    I2C2_EV_IRQHandler                       0x080084c7   Thumb Code     0  startup_stm32f40_41xxx.o(.text)
    I2C3_ER_IRQHandler                       0x080084c7   Thumb Code     0  startup_stm32f40_41xxx.o(.text)
    I2C3_EV_IRQHandler                       0x080084c7   Thumb Code     0  startup_stm32f40_41xxx.o(.text)
    OTG_FS_IRQHandler                        0x080084c7   Thumb Code     0  startup_stm32f40_41xxx.o(.text)
    OTG_FS_WKUP_IRQHandler                   0x080084c7   Thumb Code     0  startup_stm32f40_41xxx.o(.text)
    OTG_HS_EP1_IN_IRQHandler                 0x080084c7   Thumb Code     0  startup_stm32f40_41xxx.o(.text)
    OTG_HS_EP1_OUT_IRQHandler                0x080084c7   Thumb Code     0  startup_stm32f40_41xxx.o(.text)
    OTG_HS_IRQHandler                        0x080084c7   Thumb Code     0  startup_stm32f40_41xxx.o(.text)
    OTG_HS_WKUP_IRQHandler                   0x080084c7   Thumb Code     0  startup_stm32f40_41xxx.o(.text)
    PVD_IRQHandler                           0x080084c7   Thumb Code     0  startup_stm32f40_41xxx.o(.text)
    RCC_IRQHandler                           0x080084c7   Thumb Code     0  startup_stm32f40_41xxx.o(.text)
    RTC_Alarm_IRQHandler                     0x080084c7   Thumb Code     0  startup_stm32f40_41xxx.o(.text)
    RTC_WKUP_IRQHandler                      0x080084c7   Thumb Code     0  startup_stm32f40_41xxx.o(.text)
    SDIO_IRQHandler                          0x080084c7   Thumb Code     0  startup_stm32f40_41xxx.o(.text)
    SPI1_IRQHandler                          0x080084c7   Thumb Code     0  startup_stm32f40_41xxx.o(.text)
    SPI2_IRQHandler                          0x080084c7   Thumb Code     0  startup_stm32f40_41xxx.o(.text)
    SPI3_IRQHandler                          0x080084c7   Thumb Code     0  startup_stm32f40_41xxx.o(.text)
    TAMP_STAMP_IRQHandler                    0x080084c7   Thumb Code     0  startup_stm32f40_41xxx.o(.text)
    TIM1_BRK_TIM9_IRQHandler                 0x080084c7   Thumb Code     0  startup_stm32f40_41xxx.o(.text)
    TIM1_CC_IRQHandler                       0x080084c7   Thumb Code     0  startup_stm32f40_41xxx.o(.text)
    TIM1_TRG_COM_TIM11_IRQHandler            0x080084c7   Thumb Code     0  startup_stm32f40_41xxx.o(.text)
    TIM1_UP_TIM10_IRQHandler                 0x080084c7   Thumb Code     0  startup_stm32f40_41xxx.o(.text)
    TIM3_IRQHandler                          0x080084c7   Thumb Code     0  startup_stm32f40_41xxx.o(.text)
    TIM4_IRQHandler                          0x080084c7   Thumb Code     0  startup_stm32f40_41xxx.o(.text)
    TIM5_IRQHandler                          0x080084c7   Thumb Code     0  startup_stm32f40_41xxx.o(.text)
    TIM6_DAC_IRQHandler                      0x080084c7   Thumb Code     0  startup_stm32f40_41xxx.o(.text)
    TIM7_IRQHandler                          0x080084c7   Thumb Code     0  startup_stm32f40_41xxx.o(.text)
    TIM8_BRK_TIM12_IRQHandler                0x080084c7   Thumb Code     0  startup_stm32f40_41xxx.o(.text)
    TIM8_CC_IRQHandler                       0x080084c7   Thumb Code     0  startup_stm32f40_41xxx.o(.text)
    TIM8_TRG_COM_TIM14_IRQHandler            0x080084c7   Thumb Code     0  startup_stm32f40_41xxx.o(.text)
    TIM8_UP_TIM13_IRQHandler                 0x080084c7   Thumb Code     0  startup_stm32f40_41xxx.o(.text)
    UART4_IRQHandler                         0x080084c7   Thumb Code     0  startup_stm32f40_41xxx.o(.text)
    UART5_IRQHandler                         0x080084c7   Thumb Code     0  startup_stm32f40_41xxx.o(.text)
    USART2_IRQHandler                        0x080084c7   Thumb Code     0  startup_stm32f40_41xxx.o(.text)
    USART6_IRQHandler                        0x080084c7   Thumb Code     0  startup_stm32f40_41xxx.o(.text)
    WWDG_IRQHandler                          0x080084c7   Thumb Code     0  startup_stm32f40_41xxx.o(.text)
    Iint_SysParam                            0x080084d1   Thumb Code    20  systemscope.o(.text)
    SYS_InitSystem                           0x080084e5   Thumb Code   224  systemscope.o(.text)
    SYS_ResetSystem                          0x080085c5   Thumb Code     4  systemscope.o(.text)
    SYS_ErrorAnalyze                         0x080085c9   Thumb Code   124  systemscope.o(.text)
    SYS_ErrorMark                            0x08008645   Thumb Code    36  systemscope.o(.text)
    SYS_HasError                             0x08008669   Thumb Code    14  systemscope.o(.text)
    Get_Udp_Count                            0x080086a5   Thumb Code     6  processscope.o(.text)
    collect_return_hdl                       0x080086ab   Thumb Code   224  processscope.o(.text)
    Msg_Return_Handle_8                      0x0800878b   Thumb Code   202  processscope.o(.text)
    Msg_Return_Handle_16                     0x08008855   Thumb Code   210  processscope.o(.text)
    Msg_Return_Handle_32                     0x08008927   Thumb Code   238  processscope.o(.text)
    Msg_Return_Handle_String                 0x08008a15   Thumb Code    88  processscope.o(.text)
    moto_work_stat                           0x08008a6d   Thumb Code   106  processscope.o(.text)
    moto_work_stat_2                         0x08008ad7   Thumb Code   116  processscope.o(.text)
    Moto_Work_Time                           0x08008b4b   Thumb Code   180  processscope.o(.text)
    Add_Udp_Count                            0x08008bff   Thumb Code    12  processscope.o(.text)
    Reset_Udp_Count                          0x08008c0b   Thumb Code    14  processscope.o(.text)
    MSG_Handling_MsgHandle                   0x08008c19   Thumb Code   102  processscope.o(.text)
    GetTestMode                              0x08008c7f   Thumb Code    52  processscope.o(.text)
    Send_Packets_Test                        0x08008cb3   Thumb Code   232  processscope.o(.text)
    MT_X_IN_Self_Check                       0x08008d9b   Thumb Code    74  processscope.o(.text)
    MT_X_OUT_Self_Check                      0x08008de5   Thumb Code    86  processscope.o(.text)
    MSG_Testing                              0x08008e3b   Thumb Code  1234  processscope.o(.text)
    Part_Test_Valve                          0x0800930d   Thumb Code   184  processscope.o(.text)
    Part_Test_WBC_And_Check_Elec             0x080093c5   Thumb Code  1456  processscope.o(.text)
    Build_Press_Self_Check                   0x08009975   Thumb Code   532  processscope.o(.text)
    AirLight_Self_Check                      0x08009b89   Thumb Code   336  processscope.o(.text)
    Part_Test_AirFaucet                      0x08009cd9   Thumb Code  1408  processscope.o(.text)
    Part_Test_Check_Elec                     0x0800a259   Thumb Code  1392  processscope.o(.text)
    Part_Test_WBC_Elec                       0x0800a7c9   Thumb Code  1288  processscope.o(.text)
    Part_Test_Moto_X                         0x0800acd1   Thumb Code   772  processscope.o(.text)
    Part_Test_Exec                           0x0800afd5   Thumb Code   114  processscope.o(.text)
    Return_Press_Value                       0x0800b047   Thumb Code   520  processscope.o(.text)
    Valve2_Self_Check                        0x0800b24f   Thumb Code    46  processscope.o(.text)
    Valve1_Self_Check                        0x0800b27d   Thumb Code    46  processscope.o(.text)
    Pump_Self_Check                          0x0800b2ab   Thumb Code    60  processscope.o(.text)
    WBC_48V_Self_Check                       0x0800b2e7   Thumb Code    72  processscope.o(.text)
    Set_Register_Param                       0x0800b32f   Thumb Code   192  processscope.o(.text)
    Set_Press_Add                            0x0800b3ef   Thumb Code    84  processscope.o(.text)
    LED_Test_Exec                            0x0800b443   Thumb Code    52  processscope.o(.text)
    Set_CRP_Param                            0x0800b477   Thumb Code    88  processscope.o(.text)
    CRP_Test_Exec                            0x0800b4cf   Thumb Code  1312  processscope.o(.text)
    HGB_Test_Exec                            0x0800b9ef   Thumb Code   264  processscope.o(.text)
    LED_Mode_Set                             0x0800baf7   Thumb Code    84  processscope.o(.text)
    Append_Debug_Info                        0x0800bb4b   Thumb Code    72  processscope.o(.text)
    Disable_ADC                              0x0800bb93   Thumb Code    60  processscope.o(.text)
    HW_Disable_Data_Channel                  0x0800bbcf   Thumb Code    62  processscope.o(.text)
    Eable_ADC                                0x0800bc0d   Thumb Code    74  processscope.o(.text)
    HW_Enable_Data_Channel                   0x0800bc57   Thumb Code    86  processscope.o(.text)
    MSG_TestingFunc                          0x0800bcad   Thumb Code  4862  processscope.o(.text)
    Micro_Switch_Check                       0x0800cfab   Thumb Code    30  processscope.o(.text)
    MSG_Handling                             0x0800cfc9   Thumb Code  1984  processscope.o(.text)
    Simulation_Data                          0x0800d789   Thumb Code   218  processscope.o(.text)
    MSG_DataTesting                          0x0800d863   Thumb Code   114  processscope.o(.text)
    Negative_Pressure_Self_Check             0x0800d8d5   Thumb Code   126  processscope.o(.text)
    Get_WBC_V_Value                          0x0800d953   Thumb Code    28  processscope.o(.text)
    HW_Clear_Data_Channel                    0x0800d96f   Thumb Code    36  processscope.o(.text)
    PL_NET_ResetRecvComand                   0x0800da19   Thumb Code     8  protocol.o(.text)
    PL_InitProtocol                          0x0800da21   Thumb Code    26  protocol.o(.text)
    PL_CommandCheck                          0x0800da3b   Thumb Code    34  protocol.o(.text)
    PL_UnionTwoBytes_2                       0x0800da5d   Thumb Code    12  protocol.o(.text)
    PL_UnionTwoBytes                         0x0800da69   Thumb Code    12  protocol.o(.text)
    PL_UnionFourBytes                        0x0800da75   Thumb Code    20  protocol.o(.text)
    PL_COM_TriggerSend                       0x0800da89   Thumb Code    84  protocol.o(.text)
    PL_COM_SendChar                          0x0800dadd   Thumb Code    34  protocol.o(.text)
    PL_COM_SendNChar                         0x0800daff   Thumb Code    38  protocol.o(.text)
    PL_COM_SendString                        0x0800db25   Thumb Code    72  protocol.o(.text)
    PL_COM_SendValue                         0x0800db6d   Thumb Code   104  protocol.o(.text)
    PL_COM_IsrHandling                       0x0800dbd5   Thumb Code   184  protocol.o(.text)
    PL_NET_SendChar                          0x0800dc8d   Thumb Code    26  protocol.o(.text)
    PL_NET_SendNChar                         0x0800dca7   Thumb Code    30  protocol.o(.text)
    PL_NET_SendString                        0x0800dcc5   Thumb Code    64  protocol.o(.text)
    PL_NET_SendResult                        0x0800dd05   Thumb Code   110  protocol.o(.text)
    Debug_Send_String                        0x0800dd73   Thumb Code    46  protocol.o(.text)
    Debug_Send_32                            0x0800dda1   Thumb Code    62  protocol.o(.text)
    PL_NET_CheckingFrame                     0x0800dddf   Thumb Code   192  protocol.o(.text)
    PL_NET_IsFrameTransmitting               0x0800de9f   Thumb Code     6  protocol.o(.text)
    PL_NET_IsRecvCommandValid                0x0800dea5   Thumb Code     6  protocol.o(.text)
    MT_ALL_Init                              0x0800deb5   Thumb Code    54  interfacescope.o(.text)
    HW_LEVEL_GetOC                           0x0800deeb   Thumb Code   140  interfacescope.o(.text)
    MT_X_get_posi                            0x0800df77   Thumb Code    44  interfacescope.o(.text)
    MT_Y_get_posi                            0x0800dfa3   Thumb Code    28  interfacescope.o(.text)
    MT_Y_MoveToPosRel                        0x0800dfbf   Thumb Code   326  interfacescope.o(.text)
    MT_X_Home                                0x0800e105   Thumb Code   384  interfacescope.o(.text)
    MT_X_Home_only                           0x0800e285   Thumb Code   180  interfacescope.o(.text)
    MT_Y_Home                                0x0800e339   Thumb Code   128  interfacescope.o(.text)
    MT_Y_MoveToPosRel_Self_Check             0x0800e3b9   Thumb Code   264  interfacescope.o(.text)
    MT_Y_Home_Self_Check                     0x0800e4c1   Thumb Code    42  interfacescope.o(.text)
    HW_Valve_Off                             0x0800e4eb   Thumb Code    28  interfacescope.o(.text)
    HW_PUMP_Pulse                            0x0800e507   Thumb Code    18  interfacescope.o(.text)
    HW_Valve_On                              0x0800e519   Thumb Code    26  interfacescope.o(.text)
    HW_Get_Press                             0x0800e533   Thumb Code    28  interfacescope.o(.text)
    Get_Press_Value                          0x0800e54f   Thumb Code    34  interfacescope.o(.text)
    MT_X_MoveToPosRel                        0x0800e571   Thumb Code   722  interfacescope.o(.text)
    MT_X_MoveToPosRel_only                   0x0800e843   Thumb Code   180  interfacescope.o(.text)
    HW_FPGA_RST_H                            0x0800e8f7   Thumb Code    30  interfacescope.o(.text)
    HW_FPGA_RST_L                            0x0800e915   Thumb Code    30  interfacescope.o(.text)
    HW_PUMP_GetFeedbackPulse                 0x0800e933   Thumb Code    40  interfacescope.o(.text)
    HW_ADJ_SetResistor                       0x0800e95b   Thumb Code    74  interfacescope.o(.text)
    HW_ADC_SpiCtrl                           0x0800e9a5   Thumb Code    42  interfacescope.o(.text)
    HW_ADC_SpiGetADC                         0x0800e9cf   Thumb Code   108  interfacescope.o(.text)
    HW_ADC_SpiGetPress                       0x0800ea3b   Thumb Code   196  interfacescope.o(.text)
    HW_LED_On                                0x0800eaff   Thumb Code    12  interfacescope.o(.text)
    HW_LED_Off                               0x0800eb0b   Thumb Code    10  interfacescope.o(.text)
    HW_Get_ADC_Perip                         0x0800eb15   Thumb Code   204  interfacescope.o(.text)
    HW_Get_ADC_V_Cur                         0x0800ebe1   Thumb Code   108  interfacescope.o(.text)
    Get_V_HGB_LED                            0x0800ec4d   Thumb Code    40  interfacescope.o(.text)
    Get_V_CRP_LED                            0x0800ec75   Thumb Code    30  interfacescope.o(.text)
    Get_XK_V_Value                           0x0800ec93   Thumb Code    28  interfacescope.o(.text)
    Get_WBC_V_Status                         0x0800ecaf   Thumb Code    48  interfacescope.o(.text)
    HW_Status_Elec                           0x0800ecdf   Thumb Code    50  interfacescope.o(.text)
    HW_Get_Press_ADC                         0x0800ed11   Thumb Code   194  interfacescope.o(.text)
    HW_EN_WBC                                0x0800edd3   Thumb Code    42  interfacescope.o(.text)
    HW_SW_AdcRBC                             0x0800edfd   Thumb Code    42  interfacescope.o(.text)
    HW_SW_AdcWBC                             0x0800ee27   Thumb Code    42  interfacescope.o(.text)
    HW_EN_ADC_HGB                            0x0800ee51   Thumb Code    48  interfacescope.o(.text)
    HW_EN_ADC_CRP                            0x0800ee81   Thumb Code    48  interfacescope.o(.text)
    Send_Data_HGB                            0x0800eeb1   Thumb Code   272  interfacescope.o(.text)
    Send_Data_CRP                            0x0800efc1   Thumb Code   320  interfacescope.o(.text)
    HW_ADC_PressPara                         0x0800f101   Thumb Code    14  interfacescope.o(.text)
    HW_LEVEL_GetElectrode                    0x0800f10f   Thumb Code   136  interfacescope.o(.text)
    hw_filter_get_electrode                  0x0800f197   Thumb Code    44  interfacescope.o(.text)
    HW_ADC_SlaveGetADC                       0x0800f1c3   Thumb Code    46  interfacescope.o(.text)
    HW_DIR_Ctrl                              0x0800f1f1   Thumb Code    30  interfacescope.o(.text)
    HW_Start_WBC                             0x0800f20f   Thumb Code    22  interfacescope.o(.text)
    HW_End_WBC                               0x0800f225   Thumb Code    22  interfacescope.o(.text)
    HW_DATA_GetData                          0x0800f23b   Thumb Code   132  interfacescope.o(.text)
    HW_LWIP_Working                          0x0800f2bf   Thumb Code   186  interfacescope.o(.text)
    Send_Last_FIFO_Data                      0x0800f379   Thumb Code    36  interfacescope.o(.text)
    HW_DATA_ClearData                        0x0800f39d   Thumb Code    76  interfacescope.o(.text)
    Clear_FPGA_FIFO_Data                     0x0800f3e9   Thumb Code    32  interfacescope.o(.text)
    Send_Packet_Test                         0x0800f409   Thumb Code   126  interfacescope.o(.text)
    HW_LWIP_Working_Recv_Handle              0x0800f487   Thumb Code   170  interfacescope.o(.text)
    ADC_Send                                 0x0800f531   Thumb Code   150  interfacescope.o(.text)
    Poll_SendDMA_ADC1_Data                   0x0800f5c7   Thumb Code   104  interfacescope.o(.text)
    Poll_SendDMA_ADC2_Data                   0x0800f62f   Thumb Code   104  interfacescope.o(.text)
    Get_ADC1_Buffer                          0x0800f697   Thumb Code   142  interfacescope.o(.text)
    Get_ADC2_Buffer                          0x0800f725   Thumb Code   142  interfacescope.o(.text)
    HW_WBC_GetData                           0x0800f7b3   Thumb Code    26  interfacescope.o(.text)
    HW_RBC_GetData                           0x0800f7cd   Thumb Code    26  interfacescope.o(.text)
    HW_PLT_GetData                           0x0800f7e7   Thumb Code    26  interfacescope.o(.text)
    HW_RBC_PLT_GetData                       0x0800f801   Thumb Code     4  interfacescope.o(.text)
    Data_Circle_Handle                       0x0800f805   Thumb Code   428  interfacescope.o(.text)
    HW_LWIP_MainLine                         0x0800f9b1   Thumb Code    52  interfacescope.o(.text)
    MT_RESET_Software                        0x0800f9e5   Thumb Code    38  interfacescope.o(.text)
    MSG_SampleBoardFeedback                  0x0800fa0b   Thumb Code    30  interfacescope.o(.text)
    SPG_ResetRecvComand                      0x0800fa49   Thumb Code    10  samplingport.o(.text)
    SPG_InitProtocol                         0x0800fa53   Thumb Code    18  samplingport.o(.text)
    SPG_IsRecvCommandValid                   0x0800fa65   Thumb Code     6  samplingport.o(.text)
    SPG_GetDataLength                        0x0800fa6b   Thumb Code    12  samplingport.o(.text)
    SPG_CommandCheck                         0x0800fa77   Thumb Code    34  samplingport.o(.text)
    SPG_UnionTwoBytes                        0x0800fa99   Thumb Code    12  samplingport.o(.text)
    SPG_UnionFourBytes                       0x0800faa5   Thumb Code    20  samplingport.o(.text)
    SPG_TriggerSend                          0x0800fab9   Thumb Code    84  samplingport.o(.text)
    SPG_SendChar                             0x0800fb0d   Thumb Code    34  samplingport.o(.text)
    SPG_SendNChar                            0x0800fb2f   Thumb Code    38  samplingport.o(.text)
    SPG_SendString                           0x0800fb55   Thumb Code    72  samplingport.o(.text)
    SPG_WaitingFrame                         0x0800fb9d   Thumb Code   276  samplingport.o(.text)
    SPG_IsrHandling                          0x0800fcb1   Thumb Code   178  samplingport.o(.text)
    SPG_IsrTime                              0x0800fd63   Thumb Code    40  samplingport.o(.text)
    SPG_Communicate                          0x0800fd8b   Thumb Code     8  samplingport.o(.text)
    STMFLASH_GetFlashSector                  0x0800fdad   Thumb Code   116  storagemanagement.o(.text)
    Set_Default_Param                        0x0800fe21   Thumb Code    46  storagemanagement.o(.text)
    Set_Default_Param_Machine                0x0800fe4f   Thumb Code    32  storagemanagement.o(.text)
    Set_Default_Param_CRP                    0x0800fe6f   Thumb Code    20  storagemanagement.o(.text)
    Flash_Read_Param                         0x0800fe83   Thumb Code    30  storagemanagement.o(.text)
    Flash_Write_Param                        0x0800fea1   Thumb Code   110  storagemanagement.o(.text)
    ETH_DeInit                               0x0800ff3d   Thumb Code    22  stm32f4x7_eth.o(.text)
    ETH_StructInit                           0x0800ff53   Thumb Code   178  stm32f4x7_eth.o(.text)
    ETH_WritePHYRegister                     0x08010005   Thumb Code   148  stm32f4x7_eth.o(.text)
    ETH_ReadPHYRegister                      0x08010099   Thumb Code   148  stm32f4x7_eth.o(.text)
    ETH_Init                                 0x0801012d   Thumb Code  2358  stm32f4x7_eth.o(.text)
    ETH_DMAReceptionCmd                      0x08010a63   Thumb Code    54  stm32f4x7_eth.o(.text)
    ETH_DMATransmissionCmd                   0x08010a99   Thumb Code    54  stm32f4x7_eth.o(.text)
    ETH_FlushTransmitFIFO                    0x08010acf   Thumb Code    98  stm32f4x7_eth.o(.text)
    ETH_MACReceptionCmd                      0x08010b31   Thumb Code    76  stm32f4x7_eth.o(.text)
    ETH_MACTransmissionCmd                   0x08010b7d   Thumb Code    76  stm32f4x7_eth.o(.text)
    ETH_Start                                0x08010bc9   Thumb Code    32  stm32f4x7_eth.o(.text)
    ETH_Stop                                 0x08010be9   Thumb Code    32  stm32f4x7_eth.o(.text)
    ETH_GetFlowControlBusyStatus             0x08010c09   Thumb Code    20  stm32f4x7_eth.o(.text)
    ETH_InitiatePauseControlFrame            0x08010c1d   Thumb Code    38  stm32f4x7_eth.o(.text)
    ETH_BackPressureActivationCmd            0x08010c43   Thumb Code    76  stm32f4x7_eth.o(.text)
    ETH_GetMACFlagStatus                     0x08010c8f   Thumb Code    60  stm32f4x7_eth.o(.text)
    ETH_GetMACITStatus                       0x08010ccb   Thumb Code    60  stm32f4x7_eth.o(.text)
    ETH_MACITConfig                          0x08010d07   Thumb Code    74  stm32f4x7_eth.o(.text)
    ETH_MACAddressConfig                     0x08010d51   Thumb Code    78  stm32f4x7_eth.o(.text)
    ETH_GetMACAddress                        0x08010d9f   Thumb Code    68  stm32f4x7_eth.o(.text)
    ETH_MACAddressPerfectFilterCmd           0x08010de3   Thumb Code   116  stm32f4x7_eth.o(.text)
    ETH_MACAddressFilterConfig               0x08010e57   Thumb Code   118  stm32f4x7_eth.o(.text)
    ETH_MACAddressMaskBytesFilterConfig      0x08010ecd   Thumb Code   168  stm32f4x7_eth.o(.text)
    ETH_Get_Received_Frame                   0x08010f75   Thumb Code    64  stm32f4x7_eth.o(.text)
    ETH_Get_Received_Frame_interrupt         0x08010fb5   Thumb Code   270  stm32f4x7_eth.o(.text)
    ETH_Prepare_Transmit_Descriptors         0x080110c3   Thumb Code   194  stm32f4x7_eth.o(.text)
    ETH_DMARxDescChainInit                   0x08011185   Thumb Code    82  stm32f4x7_eth.o(.text)
    ETH_CheckFrameReceived                   0x080111d7   Thumb Code   210  stm32f4x7_eth.o(.text)
    ETH_DMATxDescChainInit                   0x080112a9   Thumb Code    70  stm32f4x7_eth.o(.text)
    ETH_GetDMATxDescFlagStatus               0x080112ef   Thumb Code   200  stm32f4x7_eth.o(.text)
    ETH_GetDMATxDescCollisionCount           0x080113b7   Thumb Code    10  stm32f4x7_eth.o(.text)
    ETH_SetDMATxDescOwnBit                   0x080113c1   Thumb Code    10  stm32f4x7_eth.o(.text)
    ETH_DMATxDescTransmitITConfig            0x080113cb   Thumb Code    48  stm32f4x7_eth.o(.text)
    ETH_DMATxDescFrameSegmentConfig          0x080113fb   Thumb Code    38  stm32f4x7_eth.o(.text)
    ETH_DMATxDescChecksumInsertionConfig     0x08011421   Thumb Code    46  stm32f4x7_eth.o(.text)
    ETH_DMATxDescCRCCmd                      0x0801144f   Thumb Code    46  stm32f4x7_eth.o(.text)
    ETH_DMATxDescSecondAddressChainedCmd     0x0801147d   Thumb Code    46  stm32f4x7_eth.o(.text)
    ETH_DMATxDescShortFramePaddingCmd        0x080114ab   Thumb Code    46  stm32f4x7_eth.o(.text)
    ETH_DMATxDescBufferSizeConfig            0x080114d9   Thumb Code    56  stm32f4x7_eth.o(.text)
    ETH_GetDMARxDescFlagStatus               0x08011511   Thumb Code   128  stm32f4x7_eth.o(.text)
    ETH_GetDMAPTPRxDescExtendedFlagStatus    0x08011591   Thumb Code    78  stm32f4x7_eth.o(.text)
    ETH_SetDMARxDescOwnBit                   0x080115df   Thumb Code    10  stm32f4x7_eth.o(.text)
    ETH_GetDMARxDescFrameLength              0x080115e9   Thumb Code    10  stm32f4x7_eth.o(.text)
    ETH_DMARxDescReceiveITConfig             0x080115f3   Thumb Code    46  stm32f4x7_eth.o(.text)
    ETH_GetDMARxDescBufferSize               0x08011621   Thumb Code    42  stm32f4x7_eth.o(.text)
    ETH_GetRxPktSize                         0x0801164b   Thumb Code    42  stm32f4x7_eth.o(.text)
    ETH_EnhancedDescriptorCmd                0x08011675   Thumb Code    74  stm32f4x7_eth.o(.text)
    ETH_SoftwareReset                        0x080116bf   Thumb Code    14  stm32f4x7_eth.o(.text)
    ETH_GetSoftwareResetStatus               0x080116cd   Thumb Code    20  stm32f4x7_eth.o(.text)
    ETH_GetDMAFlagStatus                     0x080116e1   Thumb Code   128  stm32f4x7_eth.o(.text)
    ETH_DMAClearFlag                         0x08011761   Thumb Code    30  stm32f4x7_eth.o(.text)
    ETH_DMAITConfig                          0x0801177f   Thumb Code    70  stm32f4x7_eth.o(.text)
    ETH_GetDMAITStatus                       0x080117c5   Thumb Code   142  stm32f4x7_eth.o(.text)
    ETH_DMAClearITPendingBit                 0x08011853   Thumb Code    30  stm32f4x7_eth.o(.text)
    ETH_GetTransmitProcessState              0x08011871   Thumb Code    10  stm32f4x7_eth.o(.text)
    ETH_GetReceiveProcessState               0x0801187b   Thumb Code    10  stm32f4x7_eth.o(.text)
    ETH_GetFlushTransmitFIFOStatus           0x08011885   Thumb Code    20  stm32f4x7_eth.o(.text)
    ETH_GetDMAOverflowStatus                 0x08011899   Thumb Code    48  stm32f4x7_eth.o(.text)
    ETH_GetRxOverflowMissedFrameCounter      0x080118c9   Thumb Code    10  stm32f4x7_eth.o(.text)
    ETH_GetBufferUnavailableMissedFrameCounter 0x080118d3   Thumb Code     8  stm32f4x7_eth.o(.text)
    ETH_GetCurrentTxDescStartAddress         0x080118db   Thumb Code     6  stm32f4x7_eth.o(.text)
    ETH_GetCurrentRxDescStartAddress         0x080118e1   Thumb Code     6  stm32f4x7_eth.o(.text)
    ETH_GetCurrentTxBufferAddress            0x080118e7   Thumb Code     6  stm32f4x7_eth.o(.text)
    ETH_GetCurrentRxBufferAddress            0x080118ed   Thumb Code     6  stm32f4x7_eth.o(.text)
    ETH_ResumeDMATransmission                0x080118f3   Thumb Code     8  stm32f4x7_eth.o(.text)
    ETH_ResumeDMAReception                   0x080118fb   Thumb Code     8  stm32f4x7_eth.o(.text)
    ETH_SetReceiveWatchdogTimer              0x08011903   Thumb Code     6  stm32f4x7_eth.o(.text)
    ETH_PHYLoopBackCmd                       0x08011909   Thumb Code    86  stm32f4x7_eth.o(.text)
    ETH_ResetWakeUpFrameFilterRegisterPointer 0x0801195f   Thumb Code    38  stm32f4x7_eth.o(.text)
    ETH_SetWakeUpFrameFilterRegister         0x08011985   Thumb Code    48  stm32f4x7_eth.o(.text)
    ETH_GlobalUnicastWakeUpCmd               0x080119b5   Thumb Code    74  stm32f4x7_eth.o(.text)
    ETH_GetPMTFlagStatus                     0x080119ff   Thumb Code    44  stm32f4x7_eth.o(.text)
    ETH_WakeUpFrameDetectionCmd              0x08011a2b   Thumb Code    74  stm32f4x7_eth.o(.text)
    ETH_MagicPacketDetectionCmd              0x08011a75   Thumb Code    74  stm32f4x7_eth.o(.text)
    ETH_PowerDownCmd                         0x08011abf   Thumb Code    74  stm32f4x7_eth.o(.text)
    ETH_MMCCounterFullPreset                 0x08011b09   Thumb Code    16  stm32f4x7_eth.o(.text)
    ETH_MMCCounterHalfPreset                 0x08011b19   Thumb Code    30  stm32f4x7_eth.o(.text)
    ETH_MMCCounterFreezeCmd                  0x08011b37   Thumb Code    56  stm32f4x7_eth.o(.text)
    ETH_MMCResetOnReadCmd                    0x08011b6f   Thumb Code    56  stm32f4x7_eth.o(.text)
    ETH_MMCCounterRolloverCmd                0x08011ba7   Thumb Code    56  stm32f4x7_eth.o(.text)
    ETH_MMCCountersReset                     0x08011bdf   Thumb Code    16  stm32f4x7_eth.o(.text)
    ETH_MMCITConfig                          0x08011bef   Thumb Code   154  stm32f4x7_eth.o(.text)
    ETH_GetMMCITStatus                       0x08011c89   Thumb Code   110  stm32f4x7_eth.o(.text)
    ETH_GetMMCRegister                       0x08011cf7   Thumb Code    88  stm32f4x7_eth.o(.text)
    NVIC_PriorityGroupConfig                 0x08011d6d   Thumb Code    54  misc.o(.text)
    NVIC_Init                                0x08011da3   Thumb Code   166  misc.o(.text)
    NVIC_SetVectorTable                      0x08011e49   Thumb Code    60  misc.o(.text)
    NVIC_SystemLPConfig                      0x08011e85   Thumb Code    78  misc.o(.text)
    SysTick_CLKSourceConfig                  0x08011ed3   Thumb Code    62  misc.o(.text)
    ADC_DeInit                               0x08011f49   Thumb Code    22  stm32f4xx_adc.o(.text)
    ADC_Init                                 0x08011f5f   Thumb Code   402  stm32f4xx_adc.o(.text)
    ADC_StructInit                           0x080120f1   Thumb Code    20  stm32f4xx_adc.o(.text)
    ADC_CommonInit                           0x08012105   Thumb Code   352  stm32f4xx_adc.o(.text)
    ADC_CommonStructInit                     0x08012265   Thumb Code    12  stm32f4xx_adc.o(.text)
    ADC_Cmd                                  0x08012271   Thumb Code    76  stm32f4xx_adc.o(.text)
    ADC_AnalogWatchdogCmd                    0x080122bd   Thumb Code   102  stm32f4xx_adc.o(.text)
    ADC_AnalogWatchdogThresholdsConfig       0x08012323   Thumb Code   164  stm32f4xx_adc.o(.text)
    ADC_AnalogWatchdogSingleChannelConfig    0x080123c7   Thumb Code   140  stm32f4xx_adc.o(.text)
    ADC_TempSensorVrefintCmd                 0x08012453   Thumb Code    58  stm32f4xx_adc.o(.text)
    ADC_VBATCmd                              0x0801248d   Thumb Code    58  stm32f4xx_adc.o(.text)
    ADC_RegularChannelConfig                 0x080124c7   Thumb Code   416  stm32f4xx_adc.o(.text)
    ADC_SoftwareStartConv                    0x08012667   Thumb Code    46  stm32f4xx_adc.o(.text)
    ADC_GetSoftwareStartConvStatus           0x08012695   Thumb Code    56  stm32f4xx_adc.o(.text)
    ADC_EOCOnEachRegularChannelCmd           0x080126cd   Thumb Code    80  stm32f4xx_adc.o(.text)
    ADC_ContinuousModeCmd                    0x0801271d   Thumb Code    80  stm32f4xx_adc.o(.text)
    ADC_DiscModeChannelCountConfig           0x0801276d   Thumb Code   100  stm32f4xx_adc.o(.text)
    ADC_DiscModeCmd                          0x080127d1   Thumb Code    80  stm32f4xx_adc.o(.text)
    ADC_GetConversionValue                   0x08012821   Thumb Code    42  stm32f4xx_adc.o(.text)
    ADC_GetMultiModeConversionValue          0x0801284b   Thumb Code     6  stm32f4xx_adc.o(.text)
    ADC_DMACmd                               0x08012851   Thumb Code    80  stm32f4xx_adc.o(.text)
    ADC_DMARequestAfterLastTransferCmd       0x080128a1   Thumb Code    80  stm32f4xx_adc.o(.text)
    ADC_MultiModeDMARequestAfterLastTransferCmd 0x080128f1   Thumb Code    58  stm32f4xx_adc.o(.text)
    ADC_InjectedChannelConfig                0x0801292b   Thumb Code   340  stm32f4xx_adc.o(.text)
    ADC_InjectedSequencerLengthConfig        0x08012a7f   Thumb Code    84  stm32f4xx_adc.o(.text)
    ADC_SetInjectedOffset                    0x08012ad3   Thumb Code   108  stm32f4xx_adc.o(.text)
    ADC_ExternalTrigInjectedConvConfig       0x08012b3f   Thumb Code   178  stm32f4xx_adc.o(.text)
    ADC_ExternalTrigInjectedConvEdgeConfig   0x08012bf1   Thumb Code    86  stm32f4xx_adc.o(.text)
    ADC_SoftwareStartInjectedConv            0x08012c47   Thumb Code    46  stm32f4xx_adc.o(.text)
    ADC_GetSoftwareStartInjectedConvCmdStatus 0x08012c75   Thumb Code    56  stm32f4xx_adc.o(.text)
    ADC_AutoInjectedConvCmd                  0x08012cad   Thumb Code    80  stm32f4xx_adc.o(.text)
    ADC_InjectedDiscModeCmd                  0x08012cfd   Thumb Code    80  stm32f4xx_adc.o(.text)
    ADC_GetInjectedConversionValue           0x08012d4d   Thumb Code    92  stm32f4xx_adc.o(.text)
    ADC_ITConfig                             0x08012da9   Thumb Code   136  stm32f4xx_adc.o(.text)
    ADC_GetFlagStatus                        0x08012e31   Thumb Code    94  stm32f4xx_adc.o(.text)
    ADC_ClearFlag                            0x08012e8f   Thumb Code    66  stm32f4xx_adc.o(.text)
    ADC_GetITStatus                          0x08012ed1   Thumb Code   126  stm32f4xx_adc.o(.text)
    ADC_ClearITPendingBit                    0x08012f4f   Thumb Code    92  stm32f4xx_adc.o(.text)
    DAC_DeInit                               0x08012fb9   Thumb Code    22  stm32f4xx_dac.o(.text)
    DAC_Init                                 0x08012fcf   Thumb Code   360  stm32f4xx_dac.o(.text)
    DAC_StructInit                           0x08013137   Thumb Code    12  stm32f4xx_dac.o(.text)
    DAC_Cmd                                  0x08013143   Thumb Code    76  stm32f4xx_dac.o(.text)
    DAC_SoftwareTriggerCmd                   0x0801318f   Thumb Code    88  stm32f4xx_dac.o(.text)
    DAC_DualSoftwareTriggerCmd               0x080131e7   Thumb Code    60  stm32f4xx_dac.o(.text)
    DAC_WaveGenerationCmd                    0x08013223   Thumb Code    98  stm32f4xx_dac.o(.text)
    DAC_SetChannel1Data                      0x08013285   Thumb Code    72  stm32f4xx_dac.o(.text)
    DAC_SetChannel2Data                      0x080132cd   Thumb Code    72  stm32f4xx_dac.o(.text)
    DAC_SetDualChannelData                   0x08013315   Thumb Code   108  stm32f4xx_dac.o(.text)
    DAC_GetDataOutputValue                   0x08013381   Thumb Code    50  stm32f4xx_dac.o(.text)
    DAC_DMACmd                               0x080133b3   Thumb Code   124  stm32f4xx_dac.o(.text)
    DAC_ITConfig                             0x0801342f   Thumb Code   102  stm32f4xx_dac.o(.text)
    DAC_GetFlagStatus                        0x08013495   Thumb Code    72  stm32f4xx_dac.o(.text)
    DAC_ClearFlag                            0x080134dd   Thumb Code    58  stm32f4xx_dac.o(.text)
    DAC_GetITStatus                          0x08013517   Thumb Code    92  stm32f4xx_dac.o(.text)
    DAC_ClearITPendingBit                    0x08013573   Thumb Code    58  stm32f4xx_dac.o(.text)
    DMA_DeInit                               0x080135b1   Thumb Code   462  stm32f4xx_dma.o(.text)
    DMA_Init                                 0x0801377f   Thumb Code   724  stm32f4xx_dma.o(.text)
    DMA_StructInit                           0x08013a53   Thumb Code    34  stm32f4xx_dma.o(.text)
    DMA_Cmd                                  0x08013a75   Thumb Code   186  stm32f4xx_dma.o(.text)
    DMA_PeriphIncOffsetSizeConfig            0x08013b2f   Thumb Code   188  stm32f4xx_dma.o(.text)
    DMA_FlowControllerConfig                 0x08013beb   Thumb Code   186  stm32f4xx_dma.o(.text)
    DMA_SetCurrDataCounter                   0x08013ca5   Thumb Code   148  stm32f4xx_dma.o(.text)
    DMA_GetCurrDataCounter                   0x08013d39   Thumb Code   148  stm32f4xx_dma.o(.text)
    DMA_DoubleBufferModeConfig               0x08013dcd   Thumb Code   204  stm32f4xx_dma.o(.text)
    DMA_DoubleBufferModeCmd                  0x08013e99   Thumb Code   186  stm32f4xx_dma.o(.text)
    DMA_MemoryTargetConfig                   0x08013f53   Thumb Code   178  stm32f4xx_dma.o(.text)
    DMA_GetCurrentMemoryTarget               0x08014005   Thumb Code   162  stm32f4xx_dma.o(.text)
    DMA_GetCmdStatus                         0x080140a7   Thumb Code   162  stm32f4xx_dma.o(.text)
    DMA_GetFIFOStatus                        0x08014149   Thumb Code   154  stm32f4xx_dma.o(.text)
    DMA_GetFlagStatus                        0x080141e3   Thumb Code   470  stm32f4xx_dma.o(.text)
    DMA_ClearFlag                            0x080143b9   Thumb Code   220  stm32f4xx_dma.o(.text)
    DMA_ITConfig                             0x08014495   Thumb Code   244  stm32f4xx_dma.o(.text)
    DMA_GetITStatus                          0x08014589   Thumb Code   590  stm32f4xx_dma.o(.text)
    DMA_ClearITPendingBit                    0x080147d7   Thumb Code   220  stm32f4xx_dma.o(.text)
    EXTI_DeInit                              0x08014955   Thumb Code    28  stm32f4xx_exti.o(.text)
    EXTI_Init                                0x08014971   Thumb Code   236  stm32f4xx_exti.o(.text)
    EXTI_StructInit                          0x08014a5d   Thumb Code    16  stm32f4xx_exti.o(.text)
    EXTI_GenerateSWInterrupt                 0x08014a6d   Thumb Code    38  stm32f4xx_exti.o(.text)
    EXTI_GetFlagStatus                       0x08014a93   Thumb Code   164  stm32f4xx_exti.o(.text)
    EXTI_ClearFlag                           0x08014b37   Thumb Code    30  stm32f4xx_exti.o(.text)
    EXTI_GetITStatus                         0x08014b55   Thumb Code   166  stm32f4xx_exti.o(.text)
    EXTI_ClearITPendingBit                   0x08014bfb   Thumb Code    32  stm32f4xx_exti.o(.text)
    FLASH_SetLatency                         0x08014c4d   Thumb Code    84  stm32f4xx_flash.o(.text)
    FLASH_PrefetchBufferCmd                  0x08014ca1   Thumb Code    52  stm32f4xx_flash.o(.text)
    FLASH_InstructionCacheCmd                0x08014cd5   Thumb Code    52  stm32f4xx_flash.o(.text)
    FLASH_DataCacheCmd                       0x08014d09   Thumb Code    52  stm32f4xx_flash.o(.text)
    FLASH_InstructionCacheReset              0x08014d3d   Thumb Code    14  stm32f4xx_flash.o(.text)
    FLASH_DataCacheReset                     0x08014d4b   Thumb Code    14  stm32f4xx_flash.o(.text)
    FLASH_Unlock                             0x08014d59   Thumb Code    26  stm32f4xx_flash.o(.text)
    FLASH_Lock                               0x08014d73   Thumb Code    18  stm32f4xx_flash.o(.text)
    FLASH_GetStatus                          0x08014d85   Thumb Code    90  stm32f4xx_flash.o(.text)
    FLASH_WaitForLastOperation               0x08014ddf   Thumb Code    34  stm32f4xx_flash.o(.text)
    FLASH_EraseSector                        0x08014e01   Thumb Code   278  stm32f4xx_flash.o(.text)
    FLASH_EraseAllSectors                    0x08014f17   Thumb Code   140  stm32f4xx_flash.o(.text)
    FLASH_EraseAllBank1Sectors               0x08014fa3   Thumb Code   140  stm32f4xx_flash.o(.text)
    FLASH_EraseAllBank2Sectors               0x0801502f   Thumb Code   190  stm32f4xx_flash.o(.text)
    FLASH_ProgramDoubleWord                  0x080150ed   Thumb Code   122  stm32f4xx_flash.o(.text)
    FLASH_ProgramWord                        0x08015167   Thumb Code   112  stm32f4xx_flash.o(.text)
    FLASH_ProgramHalfWord                    0x080151d7   Thumb Code   112  stm32f4xx_flash.o(.text)
    FLASH_ProgramByte                        0x08015247   Thumb Code   108  stm32f4xx_flash.o(.text)
    FLASH_OB_Unlock                          0x080152b3   Thumb Code    26  stm32f4xx_flash.o(.text)
    FLASH_OB_Lock                            0x080152cd   Thumb Code    18  stm32f4xx_flash.o(.text)
    FLASH_OB_WRPConfig                       0x080152df   Thumb Code    96  stm32f4xx_flash.o(.text)
    FLASH_OB_WRP1Config                      0x0801533f   Thumb Code    96  stm32f4xx_flash.o(.text)
    FLASH_OB_PCROPSelectionConfig            0x0801539f   Thumb Code    48  stm32f4xx_flash.o(.text)
    FLASH_OB_PCROPConfig                     0x080153cf   Thumb Code    96  stm32f4xx_flash.o(.text)
    FLASH_OB_PCROP1Config                    0x0801542f   Thumb Code   118  stm32f4xx_flash.o(.text)
    FLASH_OB_RDPConfig                       0x080154a5   Thumb Code    44  stm32f4xx_flash.o(.text)
    FLASH_OB_UserConfig                      0x080154d1   Thumb Code   116  stm32f4xx_flash.o(.text)
    FLASH_OB_BootConfig                      0x08015545   Thumb Code    50  stm32f4xx_flash.o(.text)
    FLASH_OB_BORConfig                       0x08015577   Thumb Code    58  stm32f4xx_flash.o(.text)
    FLASH_OB_Launch                          0x080155b1   Thumb Code    30  stm32f4xx_flash.o(.text)
    FLASH_OB_GetUser                         0x080155cf   Thumb Code    12  stm32f4xx_flash.o(.text)
    FLASH_OB_GetWRP                          0x080155db   Thumb Code     8  stm32f4xx_flash.o(.text)
    FLASH_OB_GetWRP1                         0x080155e3   Thumb Code     8  stm32f4xx_flash.o(.text)
    FLASH_OB_GetPCROP                        0x080155eb   Thumb Code     8  stm32f4xx_flash.o(.text)
    FLASH_OB_GetPCROP1                       0x080155f3   Thumb Code     8  stm32f4xx_flash.o(.text)
    FLASH_OB_GetRDP                          0x080155fb   Thumb Code    18  stm32f4xx_flash.o(.text)
    FLASH_OB_GetBOR                          0x0801560d   Thumb Code    12  stm32f4xx_flash.o(.text)
    FLASH_ITConfig                           0x08015619   Thumb Code    82  stm32f4xx_flash.o(.text)
    FLASH_GetFlagStatus                      0x0801566b   Thumb Code    76  stm32f4xx_flash.o(.text)
    FLASH_ClearFlag                          0x080156b7   Thumb Code    38  stm32f4xx_flash.o(.text)
    FSMC_NORSRAMDeInit                       0x080156e1   Thumb Code    84  stm32f4xx_fsmc.o(.text)
    FSMC_NORSRAMInit                         0x08015735   Thumb Code   870  stm32f4xx_fsmc.o(.text)
    FSMC_NORSRAMStructInit                   0x08015a9b   Thumb Code    48  stm32f4xx_fsmc.o(.text)
    FSMC_NORSRAMCmd                          0x08015acb   Thumb Code   152  stm32f4xx_fsmc.o(.text)
    FSMC_NANDDeInit                          0x08015b63   Thumb Code    90  stm32f4xx_fsmc.o(.text)
    FSMC_NANDInit                            0x08015bbd   Thumb Code   594  stm32f4xx_fsmc.o(.text)
    FSMC_NANDStructInit                      0x08015e0f   Thumb Code    54  stm32f4xx_fsmc.o(.text)
    FSMC_NANDCmd                             0x08015e45   Thumb Code   136  stm32f4xx_fsmc.o(.text)
    FSMC_NANDECCCmd                          0x08015ecd   Thumb Code   160  stm32f4xx_fsmc.o(.text)
    FSMC_GetECC                              0x08015f6d   Thumb Code    22  stm32f4xx_fsmc.o(.text)
    FSMC_PCCARDDeInit                        0x08015f83   Thumb Code    40  stm32f4xx_fsmc.o(.text)
    FSMC_PCCARDInit                          0x08015fab   Thumb Code   532  stm32f4xx_fsmc.o(.text)
    FSMC_PCCARDStructInit                    0x080161bf   Thumb Code    60  stm32f4xx_fsmc.o(.text)
    FSMC_PCCARDCmd                           0x080161fb   Thumb Code    64  stm32f4xx_fsmc.o(.text)
    FSMC_ITConfig                            0x0801623b   Thumb Code   206  stm32f4xx_fsmc.o(.text)
    FSMC_GetFlagStatus                       0x08016309   Thumb Code   160  stm32f4xx_fsmc.o(.text)
    FSMC_ClearFlag                           0x080163a9   Thumb Code   120  stm32f4xx_fsmc.o(.text)
    FSMC_GetITStatus                         0x08016421   Thumb Code   132  stm32f4xx_fsmc.o(.text)
    FSMC_ClearITPendingBit                   0x080164a5   Thumb Code   122  stm32f4xx_fsmc.o(.text)
    GPIO_DeInit                              0x08016529   Thumb Code   344  stm32f4xx_gpio.o(.text)
    GPIO_Init                                0x08016681   Thumb Code   354  stm32f4xx_gpio.o(.text)
    GPIO_StructInit                          0x080167e3   Thumb Code    18  stm32f4xx_gpio.o(.text)
    GPIO_PinLockConfig                       0x080167f5   Thumb Code   134  stm32f4xx_gpio.o(.text)
    GPIO_ReadInputDataBit                    0x0801687b   Thumb Code   282  stm32f4xx_gpio.o(.text)
    GPIO_ReadInputData                       0x08016995   Thumb Code    90  stm32f4xx_gpio.o(.text)
    GPIO_ReadOutputDataBit                   0x080169ef   Thumb Code   198  stm32f4xx_gpio.o(.text)
    GPIO_ReadOutputData                      0x08016ab5   Thumb Code    90  stm32f4xx_gpio.o(.text)
    GPIO_SetBits                             0x08016b0f   Thumb Code   110  stm32f4xx_gpio.o(.text)
    GPIO_ResetBits                           0x08016b7d   Thumb Code   110  stm32f4xx_gpio.o(.text)
    GPIO_WriteBit                            0x08016beb   Thumb Code   212  stm32f4xx_gpio.o(.text)
    GPIO_Write                               0x08016cbf   Thumb Code    90  stm32f4xx_gpio.o(.text)
    GPIO_ToggleBits                          0x08016d19   Thumb Code   140  stm32f4xx_gpio.o(.text)
    GPIO_PinAFConfig                         0x08016da5   Thumb Code   358  stm32f4xx_gpio.o(.text)
    RCC_DeInit                               0x08016f39   Thumb Code    82  stm32f4xx_rcc.o(.text)
    RCC_HSEConfig                            0x08016f8b   Thumb Code    40  stm32f4xx_rcc.o(.text)
    RCC_GetFlagStatus                        0x08016fb3   Thumb Code   134  stm32f4xx_rcc.o(.text)
    RCC_WaitForHSEStartUp                    0x08017039   Thumb Code    56  stm32f4xx_rcc.o(.text)
    RCC_AdjustHSICalibrationValue            0x08017071   Thumb Code    38  stm32f4xx_rcc.o(.text)
    RCC_HSICmd                               0x08017097   Thumb Code    28  stm32f4xx_rcc.o(.text)
    RCC_LSEConfig                            0x080170b3   Thumb Code    72  stm32f4xx_rcc.o(.text)
    RCC_LSICmd                               0x080170fb   Thumb Code    28  stm32f4xx_rcc.o(.text)
    RCC_PLLConfig                            0x08017117   Thumb Code   156  stm32f4xx_rcc.o(.text)
    RCC_PLLCmd                               0x080171b3   Thumb Code    28  stm32f4xx_rcc.o(.text)
    RCC_PLLI2SConfig                         0x080171cf   Thumb Code    62  stm32f4xx_rcc.o(.text)
    RCC_PLLI2SCmd                            0x0801720d   Thumb Code    28  stm32f4xx_rcc.o(.text)
    RCC_PLLSAIConfig                         0x08017229   Thumb Code    88  stm32f4xx_rcc.o(.text)
    RCC_PLLSAICmd                            0x08017281   Thumb Code    28  stm32f4xx_rcc.o(.text)
    RCC_ClockSecuritySystemCmd               0x0801729d   Thumb Code    28  stm32f4xx_rcc.o(.text)
    RCC_MCO1Config                           0x080172b9   Thumb Code   168  stm32f4xx_rcc.o(.text)
    RCC_MCO2Config                           0x08017361   Thumb Code   102  stm32f4xx_rcc.o(.text)
    RCC_SYSCLKConfig                         0x080173c7   Thumb Code    44  stm32f4xx_rcc.o(.text)
    RCC_GetSYSCLKSource                      0x080173f3   Thumb Code    10  stm32f4xx_rcc.o(.text)
    RCC_HCLKConfig                           0x080173fd   Thumb Code    68  stm32f4xx_rcc.o(.text)
    RCC_PCLK1Config                          0x08017441   Thumb Code    60  stm32f4xx_rcc.o(.text)
    RCC_PCLK2Config                          0x0801747d   Thumb Code    62  stm32f4xx_rcc.o(.text)
    RCC_GetClocksFreq                        0x080174bb   Thumb Code   214  stm32f4xx_rcc.o(.text)
    RCC_RTCCLKConfig                         0x08017591   Thumb Code   262  stm32f4xx_rcc.o(.text)
    RCC_RTCCLKCmd                            0x08017697   Thumb Code    30  stm32f4xx_rcc.o(.text)
    RCC_BackupResetCmd                       0x080176b5   Thumb Code    32  stm32f4xx_rcc.o(.text)
    RCC_I2SCLKConfig                         0x080176d5   Thumb Code    30  stm32f4xx_rcc.o(.text)
    RCC_SAIBlockACLKConfig                   0x080176f3   Thumb Code    50  stm32f4xx_rcc.o(.text)
    RCC_SAIBlockBCLKConfig                   0x08017725   Thumb Code    50  stm32f4xx_rcc.o(.text)
    RCC_SAIPLLI2SClkDivConfig                0x08017757   Thumb Code    50  stm32f4xx_rcc.o(.text)
    RCC_SAIPLLSAIClkDivConfig                0x08017789   Thumb Code   196  stm32f4xx_rcc.o(.text)
    RCC_LTDCCLKDivConfig                     0x0801784d   Thumb Code    54  stm32f4xx_rcc.o(.text)
    RCC_TIMCLKPresConfig                     0x08017883   Thumb Code    30  stm32f4xx_rcc.o(.text)
    RCC_AHB1PeriphClockCmd                   0x080178a1   Thumb Code    82  stm32f4xx_rcc.o(.text)
    RCC_AHB2PeriphClockCmd                   0x080178f3   Thumb Code    82  stm32f4xx_rcc.o(.text)
    RCC_AHB3PeriphClockCmd                   0x08017945   Thumb Code    82  stm32f4xx_rcc.o(.text)
    RCC_APB1PeriphClockCmd                   0x08017997   Thumb Code    82  stm32f4xx_rcc.o(.text)
    RCC_APB2PeriphClockCmd                   0x080179e9   Thumb Code    82  stm32f4xx_rcc.o(.text)
    RCC_AHB1PeriphResetCmd                   0x08017a3b   Thumb Code    82  stm32f4xx_rcc.o(.text)
    RCC_AHB2PeriphResetCmd                   0x08017a8d   Thumb Code    82  stm32f4xx_rcc.o(.text)
    RCC_AHB3PeriphResetCmd                   0x08017adf   Thumb Code    82  stm32f4xx_rcc.o(.text)
    RCC_APB1PeriphResetCmd                   0x08017b31   Thumb Code    82  stm32f4xx_rcc.o(.text)
    RCC_APB2PeriphResetCmd                   0x08017b83   Thumb Code    82  stm32f4xx_rcc.o(.text)
    RCC_AHB1PeriphClockLPModeCmd             0x08017bd5   Thumb Code   108  stm32f4xx_rcc.o(.text)
    RCC_AHB2PeriphClockLPModeCmd             0x08017c41   Thumb Code    82  stm32f4xx_rcc.o(.text)
    RCC_AHB3PeriphClockLPModeCmd             0x08017c93   Thumb Code    82  stm32f4xx_rcc.o(.text)
    RCC_APB1PeriphClockLPModeCmd             0x08017ce5   Thumb Code    82  stm32f4xx_rcc.o(.text)
    RCC_APB2PeriphClockLPModeCmd             0x08017d37   Thumb Code    82  stm32f4xx_rcc.o(.text)
    RCC_LSEModeConfig                        0x08017d89   Thumb Code    64  stm32f4xx_rcc.o(.text)
    RCC_ITConfig                             0x08017dc9   Thumb Code    82  stm32f4xx_rcc.o(.text)
    RCC_ClearFlag                            0x08017e1b   Thumb Code    18  stm32f4xx_rcc.o(.text)
    RCC_GetITStatus                          0x08017e2d   Thumb Code    72  stm32f4xx_rcc.o(.text)
    RCC_ClearITPendingBit                    0x08017e75   Thumb Code    28  stm32f4xx_rcc.o(.text)
    SPI_I2S_DeInit                           0x08017e99   Thumb Code   198  stm32f4xx_spi.o(.text)
    SPI_Init                                 0x08017f5f   Thumb Code   366  stm32f4xx_spi.o(.text)
    I2S_Init                                 0x080180cd   Thumb Code   624  stm32f4xx_spi.o(.text)
    SPI_StructInit                           0x0801833d   Thumb Code    24  stm32f4xx_spi.o(.text)
    I2S_StructInit                           0x08018355   Thumb Code    20  stm32f4xx_spi.o(.text)
    SPI_Cmd                                  0x08018369   Thumb Code   100  stm32f4xx_spi.o(.text)
    I2S_Cmd                                  0x080183cd   Thumb Code    88  stm32f4xx_spi.o(.text)
    SPI_DataSizeConfig                       0x08018425   Thumb Code    96  stm32f4xx_spi.o(.text)
    SPI_BiDirectionalLineConfig              0x08018485   Thumb Code   112  stm32f4xx_spi.o(.text)
    SPI_NSSInternalSoftwareConfig            0x080184f5   Thumb Code   114  stm32f4xx_spi.o(.text)
    SPI_SSOutputCmd                          0x08018567   Thumb Code   100  stm32f4xx_spi.o(.text)
    SPI_TIModeCmd                            0x080185cb   Thumb Code   100  stm32f4xx_spi.o(.text)
    I2S_FullDuplexConfig                     0x0801862f   Thumb Code   258  stm32f4xx_spi.o(.text)
    SPI_I2S_ReceiveData                      0x08018731   Thumb Code   100  stm32f4xx_spi.o(.text)
    SPI_I2S_SendData                         0x08018795   Thumb Code    72  stm32f4xx_spi.o(.text)
    SPI_CalculateCRC                         0x080187dd   Thumb Code   100  stm32f4xx_spi.o(.text)
    SPI_TransmitCRC                          0x08018841   Thumb Code    64  stm32f4xx_spi.o(.text)
    SPI_GetCRC                               0x08018881   Thumb Code    92  stm32f4xx_spi.o(.text)
    SPI_GetCRCPolynomial                     0x080188dd   Thumb Code    58  stm32f4xx_spi.o(.text)
    SPI_I2S_DMACmd                           0x08018917   Thumb Code   132  stm32f4xx_spi.o(.text)
    SPI_I2S_ITConfig                         0x0801899b   Thumb Code   156  stm32f4xx_spi.o(.text)
    SPI_I2S_GetFlagStatus                    0x08018a37   Thumb Code   138  stm32f4xx_spi.o(.text)
    SPI_I2S_ClearFlag                        0x08018ac1   Thumb Code    92  stm32f4xx_spi.o(.text)
    SPI_I2S_GetITStatus                      0x08018b1d   Thumb Code   200  stm32f4xx_spi.o(.text)
    SPI_I2S_ClearITPendingBit                0x08018be5   Thumb Code   104  stm32f4xx_spi.o(.text)
    SYSCFG_DeInit                            0x08018c69   Thumb Code    22  stm32f4xx_syscfg.o(.text)
    SYSCFG_MemoryRemapConfig                 0x08018c7f   Thumb Code    34  stm32f4xx_syscfg.o(.text)
    SYSCFG_MemorySwappingBank                0x08018ca1   Thumb Code    26  stm32f4xx_syscfg.o(.text)
    SYSCFG_EXTILineConfig                    0x08018cbb   Thumb Code   194  stm32f4xx_syscfg.o(.text)
    SYSCFG_ETH_MediaInterfaceConfig          0x08018d7d   Thumb Code    26  stm32f4xx_syscfg.o(.text)
    SYSCFG_CompensationCellCmd               0x08018d97   Thumb Code    26  stm32f4xx_syscfg.o(.text)
    SYSCFG_GetCompensationCellStatus         0x08018db1   Thumb Code    22  stm32f4xx_syscfg.o(.text)
    TIM_DeInit                               0x08018e05   Thumb Code   440  stm32f4xx_tim.o(.text)
    TIM_TimeBaseInit                         0x08018fbd   Thumb Code   278  stm32f4xx_tim.o(.text)
    TIM_TimeBaseStructInit                   0x080190d3   Thumb Code    18  stm32f4xx_tim.o(.text)
    TIM_PrescalerConfig                      0x080190e5   Thumb Code   128  stm32f4xx_tim.o(.text)
    TIM_CounterModeConfig                    0x08019165   Thumb Code   100  stm32f4xx_tim.o(.text)
    TIM_SetCounter                           0x080191c9   Thumb Code   202  stm32f4xx_tim.o(.text)
    TIM_SetAutoreload                        0x08019293   Thumb Code   108  stm32f4xx_tim.o(.text)
    TIM_GetCounter                           0x080192ff   Thumb Code   106  stm32f4xx_tim.o(.text)
    TIM_GetPrescaler                         0x08019369   Thumb Code   106  stm32f4xx_tim.o(.text)
    TIM_UpdateDisableConfig                  0x080193d3   Thumb Code   148  stm32f4xx_tim.o(.text)
    TIM_UpdateRequestConfig                  0x08019467   Thumb Code   148  stm32f4xx_tim.o(.text)
    TIM_ARRPreloadConfig                     0x080194fb   Thumb Code   148  stm32f4xx_tim.o(.text)
    TIM_SelectOnePulseMode                   0x0801958f   Thumb Code   142  stm32f4xx_tim.o(.text)
    TIM_SetClockDivision                     0x0801961d   Thumb Code   192  stm32f4xx_tim.o(.text)
    TIM_Cmd                                  0x080196dd   Thumb Code   148  stm32f4xx_tim.o(.text)
    TIM_OC1Init                              0x08019771   Thumb Code   416  stm32f4xx_tim.o(.text)
    TIM_OC2Init                              0x08019911   Thumb Code   486  stm32f4xx_tim.o(.text)
    TIM_OC3Init                              0x08019af7   Thumb Code   416  stm32f4xx_tim.o(.text)
    TIM_OC4Init                              0x08019c97   Thumb Code   300  stm32f4xx_tim.o(.text)
    TIM_OCStructInit                         0x08019dc3   Thumb Code    20  stm32f4xx_tim.o(.text)
    TIM_SelectOCxM                           0x08019dd7   Thumb Code   256  stm32f4xx_tim.o(.text)
    TIM_SetCompare1                          0x08019ed7   Thumb Code   142  stm32f4xx_tim.o(.text)
    TIM_SetCompare2                          0x08019f65   Thumb Code    72  stm32f4xx_tim.o(.text)
    TIM_SetCompare3                          0x08019fad   Thumb Code    60  stm32f4xx_tim.o(.text)
    TIM_SetCompare4                          0x08019fe9   Thumb Code    60  stm32f4xx_tim.o(.text)
    TIM_ForcedOC1Config                      0x0801a025   Thumb Code   130  stm32f4xx_tim.o(.text)
    TIM_ForcedOC2Config                      0x0801a0a7   Thumb Code   114  stm32f4xx_tim.o(.text)
    TIM_ForcedOC3Config                      0x0801a119   Thumb Code    94  stm32f4xx_tim.o(.text)
    TIM_ForcedOC4Config                      0x0801a177   Thumb Code   102  stm32f4xx_tim.o(.text)
    TIM_OC1PreloadConfig                     0x0801a1dd   Thumb Code   126  stm32f4xx_tim.o(.text)
    TIM_OC2PreloadConfig                     0x0801a25b   Thumb Code   108  stm32f4xx_tim.o(.text)
    TIM_OC3PreloadConfig                     0x0801a2c7   Thumb Code   138  stm32f4xx_tim.o(.text)
    TIM_OC4PreloadConfig                     0x0801a351   Thumb Code    96  stm32f4xx_tim.o(.text)
    TIM_OC1FastConfig                        0x0801a3b1   Thumb Code   124  stm32f4xx_tim.o(.text)
    TIM_OC2FastConfig                        0x0801a42d   Thumb Code   108  stm32f4xx_tim.o(.text)
    TIM_OC3FastConfig                        0x0801a499   Thumb Code    88  stm32f4xx_tim.o(.text)
    TIM_OC4FastConfig                        0x0801a4f1   Thumb Code    96  stm32f4xx_tim.o(.text)
    TIM_ClearOC1Ref                          0x0801a551   Thumb Code   124  stm32f4xx_tim.o(.text)
    TIM_ClearOC2Ref                          0x0801a5cd   Thumb Code   106  stm32f4xx_tim.o(.text)
    TIM_ClearOC3Ref                          0x0801a637   Thumb Code    88  stm32f4xx_tim.o(.text)
    TIM_ClearOC4Ref                          0x0801a68f   Thumb Code    94  stm32f4xx_tim.o(.text)
    TIM_OC1PolarityConfig                    0x0801a6ed   Thumb Code   174  stm32f4xx_tim.o(.text)
    TIM_OC1NPolarityConfig                   0x0801a79b   Thumb Code    64  stm32f4xx_tim.o(.text)
    TIM_OC2PolarityConfig                    0x0801a7db   Thumb Code   108  stm32f4xx_tim.o(.text)
    TIM_OC2NPolarityConfig                   0x0801a847   Thumb Code    72  stm32f4xx_tim.o(.text)
    TIM_OC3PolarityConfig                    0x0801a88f   Thumb Code    96  stm32f4xx_tim.o(.text)
    TIM_OC3NPolarityConfig                   0x0801a8ef   Thumb Code    72  stm32f4xx_tim.o(.text)
    TIM_OC4PolarityConfig                    0x0801a937   Thumb Code    96  stm32f4xx_tim.o(.text)
    TIM_CCxCmd                               0x0801a997   Thumb Code   168  stm32f4xx_tim.o(.text)
    TIM_CCxNCmd                              0x0801aa3f   Thumb Code   104  stm32f4xx_tim.o(.text)
    TIM_SetIC4Prescaler                      0x0801aaa7   Thumb Code   106  stm32f4xx_tim.o(.text)
    TIM_SetIC3Prescaler                      0x0801ab91   Thumb Code    98  stm32f4xx_tim.o(.text)
    TIM_SetIC2Prescaler                      0x0801ac3b   Thumb Code   118  stm32f4xx_tim.o(.text)
    TIM_SetIC1Prescaler                      0x0801ad01   Thumb Code   134  stm32f4xx_tim.o(.text)
    TIM_ICInit                               0x0801adc1   Thumb Code   508  stm32f4xx_tim.o(.text)
    TIM_ICStructInit                         0x0801afbd   Thumb Code    18  stm32f4xx_tim.o(.text)
    TIM_PWMIConfig                           0x0801afcf   Thumb Code   184  stm32f4xx_tim.o(.text)
    TIM_GetCapture1                          0x0801b087   Thumb Code    92  stm32f4xx_tim.o(.text)
    TIM_GetCapture2                          0x0801b0e3   Thumb Code    68  stm32f4xx_tim.o(.text)
    TIM_GetCapture3                          0x0801b127   Thumb Code    56  stm32f4xx_tim.o(.text)
    TIM_GetCapture4                          0x0801b15f   Thumb Code    56  stm32f4xx_tim.o(.text)
    TIM_BDTRConfig                           0x0801b197   Thumb Code   222  stm32f4xx_tim.o(.text)
    TIM_BDTRStructInit                       0x0801b275   Thumb Code    18  stm32f4xx_tim.o(.text)
    TIM_CtrlPWMOutputs                       0x0801b287   Thumb Code    78  stm32f4xx_tim.o(.text)
    TIM_SelectCOM                            0x0801b2d5   Thumb Code    72  stm32f4xx_tim.o(.text)
    TIM_CCPreloadControl                     0x0801b31d   Thumb Code    72  stm32f4xx_tim.o(.text)
    TIM_ITConfig                             0x0801b365   Thumb Code   218  stm32f4xx_tim.o(.text)
    TIM_GenerateEvent                        0x0801b43f   Thumb Code   126  stm32f4xx_tim.o(.text)
    TIM_GetFlagStatus                        0x0801b4bd   Thumb Code   188  stm32f4xx_tim.o(.text)
    TIM_ClearFlag                            0x0801b579   Thumb Code   108  stm32f4xx_tim.o(.text)
    TIM_GetITStatus                          0x0801b5e5   Thumb Code   186  stm32f4xx_tim.o(.text)
    TIM_ClearITPendingBit                    0x0801b69f   Thumb Code   108  stm32f4xx_tim.o(.text)
    TIM_DMAConfig                            0x0801b70b   Thumb Code   334  stm32f4xx_tim.o(.text)
    TIM_DMACmd                               0x0801b859   Thumb Code   126  stm32f4xx_tim.o(.text)
    TIM_SelectCCDMA                          0x0801b8d7   Thumb Code    96  stm32f4xx_tim.o(.text)
    TIM_InternalClockConfig                  0x0801b937   Thumb Code    76  stm32f4xx_tim.o(.text)
    TIM_SelectInputTrigger                   0x0801b983   Thumb Code   148  stm32f4xx_tim.o(.text)
    TIM_ITRxExternalClockConfig              0x0801ba17   Thumb Code   110  stm32f4xx_tim.o(.text)
    TIM_TIxExternalClockConfig               0x0801ba85   Thumb Code   184  stm32f4xx_tim.o(.text)
    TIM_ETRConfig                            0x0801bb3d   Thumb Code   164  stm32f4xx_tim.o(.text)
    TIM_ETRClockMode1Config                  0x0801bbe1   Thumb Code   228  stm32f4xx_tim.o(.text)
    TIM_ETRClockMode2Config                  0x0801bcc5   Thumb Code   152  stm32f4xx_tim.o(.text)
    TIM_SelectOutputTrigger                  0x0801bd5d   Thumb Code   126  stm32f4xx_tim.o(.text)
    TIM_SelectSlaveMode                      0x0801bddb   Thumb Code   112  stm32f4xx_tim.o(.text)
    TIM_SelectMasterSlaveMode                0x0801be4b   Thumb Code   102  stm32f4xx_tim.o(.text)
    TIM_EncoderInterfaceConfig               0x0801beb1   Thumb Code   226  stm32f4xx_tim.o(.text)
    TIM_SelectHallSensor                     0x0801bf93   Thumb Code   108  stm32f4xx_tim.o(.text)
    TIM_RemapConfig                          0x0801bfff   Thumb Code   138  stm32f4xx_tim.o(.text)
    USART_DeInit                             0x0801c089   Thumb Code   276  stm32f4xx_usart.o(.text)
    USART_Init                               0x0801c19d   Thumb Code   492  stm32f4xx_usart.o(.text)
    USART_StructInit                         0x0801c389   Thumb Code    24  stm32f4xx_usart.o(.text)
    USART_ClockInit                          0x0801c3a1   Thumb Code   166  stm32f4xx_usart.o(.text)
    USART_ClockStructInit                    0x0801c447   Thumb Code    12  stm32f4xx_usart.o(.text)
    USART_Cmd                                0x0801c453   Thumb Code   214  stm32f4xx_usart.o(.text)
    USART_SetPrescaler                       0x0801c529   Thumb Code    96  stm32f4xx_usart.o(.text)
    USART_OverSampling8Cmd                   0x0801c589   Thumb Code   122  stm32f4xx_usart.o(.text)
    USART_OneBitMethodCmd                    0x0801c603   Thumb Code   124  stm32f4xx_usart.o(.text)
    USART_SendData                           0x0801c67f   Thumb Code   108  stm32f4xx_usart.o(.text)
    USART_ReceiveData                        0x0801c6eb   Thumb Code    86  stm32f4xx_usart.o(.text)
    USART_SetAddress                         0x0801c741   Thumb Code   116  stm32f4xx_usart.o(.text)
    USART_ReceiverWakeUpCmd                  0x0801c7b5   Thumb Code   124  stm32f4xx_usart.o(.text)
    USART_WakeUpConfig                       0x0801c831   Thumb Code   120  stm32f4xx_usart.o(.text)
    USART_LINBreakDetectLengthConfig         0x0801c8a9   Thumb Code   160  stm32f4xx_usart.o(.text)
    USART_LINCmd                             0x0801c949   Thumb Code   124  stm32f4xx_usart.o(.text)
    USART_SendBreak                          0x0801c9c5   Thumb Code    88  stm32f4xx_usart.o(.text)
    USART_HalfDuplexCmd                      0x0801ca1d   Thumb Code   124  stm32f4xx_usart.o(.text)
    USART_SetGuardTime                       0x0801ca99   Thumb Code    60  stm32f4xx_usart.o(.text)
    USART_SmartCardCmd                       0x0801cad5   Thumb Code    88  stm32f4xx_usart.o(.text)
    USART_SmartCardNACKCmd                   0x0801cb2d   Thumb Code    88  stm32f4xx_usart.o(.text)
    USART_IrDAConfig                         0x0801cb85   Thumb Code   118  stm32f4xx_usart.o(.text)
    USART_IrDACmd                            0x0801cbfb   Thumb Code   124  stm32f4xx_usart.o(.text)
    USART_DMACmd                             0x0801cc77   Thumb Code   184  stm32f4xx_usart.o(.text)
    USART_ITConfig                           0x0801cd2f   Thumb Code   290  stm32f4xx_usart.o(.text)
    USART_GetFlagStatus                      0x0801ce51   Thumb Code   200  stm32f4xx_usart.o(.text)
    USART_ClearFlag                          0x0801cf19   Thumb Code   158  stm32f4xx_usart.o(.text)
    USART_GetITStatus                        0x0801cfb7   Thumb Code   306  stm32f4xx_usart.o(.text)
    USART_ClearITPendingBit                  0x0801d0e9   Thumb Code   234  stm32f4xx_usart.o(.text)
    FPGA_Init                                0x0801d1e5   Thumb Code   674  fpga.o(.text)
    FPGA_WriteBuffer                         0x0801d487   Thumb Code    24  fpga.o(.text)
    FPGA_ResetHardware                       0x0801d49f   Thumb Code   104  fpga.o(.text)
    FPGA_ReadBuffer                          0x0801d507   Thumb Code    22  fpga.o(.text)
    FPGA_DATA_WriteBuffer                    0x0801d51d   Thumb Code    24  fpga.o(.text)
    FPGA_DATA_ReadBuffer                     0x0801d535   Thumb Code    22  fpga.o(.text)
    SysTick_Handler                          0x0801d55d   Thumb Code    38  scope_it.o(.text)
    TIM2_IRQHandler                          0x0801d583   Thumb Code   380  scope_it.o(.text)
    USART1_IRQHandler                        0x0801d6ff   Thumb Code    14  scope_it.o(.text)
    USART3_IRQHandler                        0x0801d70d   Thumb Code    14  scope_it.o(.text)
    IT_SYS_DlyMs                             0x0801d71b   Thumb Code    30  scope_it.o(.text)
    IT_SYS_GetTicks                          0x0801d739   Thumb Code     6  scope_it.o(.text)
    IT_SYS_SetTicks                          0x0801d73f   Thumb Code    10  scope_it.o(.text)
    IT_SYS_SetDlyMs                          0x0801d749   Thumb Code    16  scope_it.o(.text)
    IT_SYS_CheckDlyFin                       0x0801d759   Thumb Code    20  scope_it.o(.text)
    IT_LIST_GetTicks                         0x0801d76d   Thumb Code     6  scope_it.o(.text)
    IT_LIST_SetTicks                         0x0801d773   Thumb Code    10  scope_it.o(.text)
    IT_ADC_GetTicks                          0x0801d77d   Thumb Code     6  scope_it.o(.text)
    IT_ADC_SetTicks                          0x0801d783   Thumb Code    10  scope_it.o(.text)
    assert_failed                            0x0801d7f1   Thumb Code    18  scope_eval.o(.text)
    fputc                                    0x0801d803   Thumb Code    16  scope_eval.o(.text)
    PF_InitTimer2                            0x0801d813   Thumb Code   122  scope_eval.o(.text)
    EVAL_Init                                0x0801d9b5   Thumb Code   240  scope_eval.o(.text)
    EVAL_OutputSet                           0x0801daa5   Thumb Code    16  scope_eval.o(.text)
    EVAL_OutputClr                           0x0801dab5   Thumb Code    16  scope_eval.o(.text)
    EVAL_OutputToggle                        0x0801dac5   Thumb Code    26  scope_eval.o(.text)
    EVAL_InputGetState                       0x0801db7b   Thumb Code    22  scope_eval.o(.text)
    MV_InitPara                              0x0801dc8d   Thumb Code   190  scope_move.o(.text)
    MV_Move                                  0x0801dd4b   Thumb Code   434  scope_move.o(.text)
    MV_Stop                                  0x0801defd   Thumb Code    98  scope_move.o(.text)
    MV_Wait                                  0x0801df5f   Thumb Code    84  scope_move.o(.text)
    MV_GetStepsExecuted                      0x0801dfb3   Thumb Code    56  scope_move.o(.text)
    MV_IsFinished                            0x0801dfeb   Thumb Code    20  scope_move.o(.text)
    MV_IsrMoveHandling                       0x0801dfff   Thumb Code   104  scope_move.o(.text)
    BUF_Send_Init                            0x0801e079   Thumb Code    14  buffercircle.o(.text)
    BUF_Send_PutChar                         0x0801e087   Thumb Code    54  buffercircle.o(.text)
    BUF_Send_GetChar                         0x0801e0bd   Thumb Code    74  buffercircle.o(.text)
    BUF_Send_PutNChar                        0x0801e191   Thumb Code    94  buffercircle.o(.text)
    BUF_Send_GetNChar                        0x0801e1ef   Thumb Code    94  buffercircle.o(.text)
    BUF_Recv_Init                            0x0801e24d   Thumb Code    14  buffercircle.o(.text)
    BUF_Recv_PutChar                         0x0801e25b   Thumb Code    54  buffercircle.o(.text)
    BUF_Recv_GetChar                         0x0801e291   Thumb Code    74  buffercircle.o(.text)
    BUF_Recv_PutNChar                        0x0801e365   Thumb Code    94  buffercircle.o(.text)
    BUF_Recv_GetNChar                        0x0801e3c3   Thumb Code    94  buffercircle.o(.text)
    NET_BUF_Send_Init                        0x0801e431   Thumb Code    14  netbuffercircle.o(.text)
    NET_BUF_Send_PutChar                     0x0801e43f   Thumb Code    54  netbuffercircle.o(.text)
    NET_BUF_Send_GetChar                     0x0801e475   Thumb Code    74  netbuffercircle.o(.text)
    NET_BUF_Send_GetLenConsume               0x0801e4bf   Thumb Code   112  netbuffercircle.o(.text)
    NET_BUF_Send_GetLenRemain                0x0801e52f   Thumb Code    26  netbuffercircle.o(.text)
    NET_BUF_Send_PutNChar                    0x0801e549   Thumb Code    94  netbuffercircle.o(.text)
    NET_BUF_Send_GetNChar                    0x0801e5a7   Thumb Code    94  netbuffercircle.o(.text)
    NET_BUF_Recv_Init                        0x0801e605   Thumb Code    14  netbuffercircle.o(.text)
    NET_BUF_Recv_PutChar                     0x0801e613   Thumb Code    54  netbuffercircle.o(.text)
    NET_BUF_Recv_GetChar                     0x0801e649   Thumb Code    74  netbuffercircle.o(.text)
    NET_BUF_Recv_GetLenConsume               0x0801e693   Thumb Code   112  netbuffercircle.o(.text)
    NET_BUF_Recv_GetLenRemain                0x0801e703   Thumb Code    26  netbuffercircle.o(.text)
    NET_BUF_Recv_PutNChar                    0x0801e71d   Thumb Code    94  netbuffercircle.o(.text)
    NET_BUF_Recv_GetNChar                    0x0801e77b   Thumb Code    94  netbuffercircle.o(.text)
    SPG_Send_Init                            0x0801e7e9   Thumb Code    14  samplebuffercircle.o(.text)
    SPG_Send_PutChar                         0x0801e7f7   Thumb Code    52  samplebuffercircle.o(.text)
    SPG_Send_GetChar                         0x0801e82b   Thumb Code    68  samplebuffercircle.o(.text)
    SPG_Send_PutNChar                        0x0801e8ef   Thumb Code    92  samplebuffercircle.o(.text)
    SPG_Send_GetNChar                        0x0801e94b   Thumb Code    92  samplebuffercircle.o(.text)
    SPG_Recv_Init                            0x0801e9a7   Thumb Code    14  samplebuffercircle.o(.text)
    SPG_Recv_PutChar                         0x0801e9b5   Thumb Code    52  samplebuffercircle.o(.text)
    SPG_Recv_GetChar                         0x0801e9e9   Thumb Code    68  samplebuffercircle.o(.text)
    SPG_Recv_PutNChar                        0x0801eaad   Thumb Code    92  samplebuffercircle.o(.text)
    SPG_Recv_GetNChar                        0x0801eb09   Thumb Code    92  samplebuffercircle.o(.text)
    Delay_US                                 0x0801eb75   Thumb Code    54  driver.o(.text)
    ADC1_DMA_Config                          0x0801ebab   Thumb Code   174  driver.o(.text)
    ADC1_Init                                0x0801ec59   Thumb Code   192  driver.o(.text)
    DMA2_Stream0_IRQHandler                  0x0801ed19   Thumb Code    72  driver.o(.text)
    DMA2_Stream3_IRQHandler                  0x0801ed61   Thumb Code    80  driver.o(.text)
    ADC2_DMA_Config                          0x0801edb1   Thumb Code   194  driver.o(.text)
    ADC2_Init                                0x0801ee73   Thumb Code   174  driver.o(.text)
    Get_Adc                                  0x0801ef21   Thumb Code   144  driver.o(.text)
    ADC3_GPIO_Init                           0x0801efb1   Thumb Code   226  driver.o(.text)
    ADC3_Init                                0x0801f093   Thumb Code    84  driver.o(.text)
    Press_I2C_Init                           0x0801f0e7   Thumb Code    96  driver.o(.text)
    Press_Init                               0x0801f147   Thumb Code     8  driver.o(.text)
    Press_I2C_Start                          0x0801f14f   Thumb Code    68  driver.o(.text)
    Press_I2C_Stop                           0x0801f193   Thumb Code    60  driver.o(.text)
    Press_I2C_Wait_Ack                       0x0801f1cf   Thumb Code    78  driver.o(.text)
    Press_I2C_Ack                            0x0801f21d   Thumb Code    72  driver.o(.text)
    Press_I2C_NAck                           0x0801f265   Thumb Code    72  driver.o(.text)
    Press_I2C_Send_Byte                      0x0801f2ad   Thumb Code    96  driver.o(.text)
    Press_I2C_Read_Byte                      0x0801f30d   Thumb Code    94  driver.o(.text)
    Get_Press_I2C                            0x0801f36b   Thumb Code   242  driver.o(.text)
    Get_Press_ADC                            0x0801f45d   Thumb Code     4  driver.o(.text)
    Get_XK_ADC                               0x0801f461   Thumb Code    86  driver.o(.text)
    Get_56V_Cur_ADC                          0x0801f4b7   Thumb Code    86  driver.o(.text)
    Get_LED_Cur_ADC                          0x0801f50d   Thumb Code    86  driver.o(.text)
    HW_Get_ADC_HGB                           0x0801f563   Thumb Code    82  driver.o(.text)
    HW_Get_ADC_CRP                           0x0801f5b5   Thumb Code    82  driver.o(.text)
    Get_HGB_Value                            0x0801f607   Thumb Code    38  driver.o(.text)
    Get_CRP_Value                            0x0801f62d   Thumb Code    26  driver.o(.text)
    Reset_Elec_Status                        0x0801f647   Thumb Code     8  driver.o(.text)
    Set_Elec_Status                          0x0801f64f   Thumb Code     8  driver.o(.text)
    Get_Elec_Status                          0x0801f657   Thumb Code     6  driver.o(.text)
    Elec_Init                                0x0801f65d   Thumb Code   122  driver.o(.text)
    Get_Elec_ADC                             0x0801f6d7   Thumb Code    86  driver.o(.text)
    Beep_Init                                0x0801f72d   Thumb Code    46  driver.o(.text)
    Beep                                     0x0801f75b   Thumb Code    34  driver.o(.text)
    Pump_PWM_Init                            0x0801f77d   Thumb Code   176  driver.o(.text)
    Pump_init                                0x0801f82d   Thumb Code    68  driver.o(.text)
    Pump_AntiClockWise                       0x0801f871   Thumb Code     2  driver.o(.text)
    Pump_ClockWise                           0x0801f873   Thumb Code     2  driver.o(.text)
    Pump_Speed_Set                           0x0801f875   Thumb Code    32  driver.o(.text)
    Pump_Exec                                0x0801f895   Thumb Code    40  driver.o(.text)
    Mixing_Motor_Init                        0x0801f8bd   Thumb Code    58  driver.o(.text)
    Mixing_Motor_Run                         0x0801f8f7   Thumb Code    14  driver.o(.text)
    Mixing_Motor_Stop                        0x0801f905   Thumb Code    14  driver.o(.text)
    Valve_Init                               0x0801f913   Thumb Code   100  driver.o(.text)
    Valve_Air_Exec                           0x0801f977   Thumb Code    32  driver.o(.text)
    Valve_Liquid_Exec                        0x0801f997   Thumb Code    30  driver.o(.text)
    Valve_Exec                               0x0801f9b5   Thumb Code    28  driver.o(.text)
    Turn_Motor_Init                          0x0801f9d1   Thumb Code   196  driver.o(.text)
    Get_Fix_OC_Status                        0x0801fa95   Thumb Code    12  driver.o(.text)
    Turn_Motor_Reset                         0x0801faa1   Thumb Code    82  driver.o(.text)
    Turn_Motor_Goto_Postion                  0x0801faf3   Thumb Code    68  driver.o(.text)
    Turn_Motor_Select_LED                    0x0801fb37   Thumb Code   112  driver.o(.text)
    MICRO_OC_EXIT_FUNC                       0x0801fba7   Thumb Code    20  driver.o(.text)
    Micro_OC_Init                            0x0801fbbb   Thumb Code   126  driver.o(.text)
    OC_Init                                  0x0801fc39   Thumb Code   162  driver.o(.text)
    Get_Micro_OC_Status                      0x0801fcdb   Thumb Code    12  driver.o(.text)
    Get_Out_OC_Status                        0x0801fce7   Thumb Code    12  driver.o(.text)
    Get_In_OC_Status                         0x0801fcf3   Thumb Code    12  driver.o(.text)
    LED_Cur_DAC_Init                         0x0801fcff   Thumb Code    84  driver.o(.text)
    LED_Init                                 0x0801fd53   Thumb Code   298  driver.o(.text)
    LED_Cur_DAC_Set                          0x0801fe7d   Thumb Code    14  driver.o(.text)
    LED_Cur_Switch                           0x0801fe8b   Thumb Code    32  driver.o(.text)
    LED_Cur_Auto_Adjust                      0x0801feab   Thumb Code    78  driver.o(.text)
    LED_Exec                                 0x0801fef9   Thumb Code   248  driver.o(.text)
    DRegister_SPI_Init                       0x0801fff1   Thumb Code   272  driver.o(.text)
    DResistor_Init                           0x08020101   Thumb Code     8  driver.o(.text)
    DRegister_Write                          0x08020109   Thumb Code    28  driver.o(.text)
    DResistor_Set                            0x08020125   Thumb Code    24  driver.o(.text)
    Driver_Debug                             0x0802013d   Thumb Code   852  driver.o(.text)
    ADC24Bit_SPI_Init                        0x08020655   Thumb Code   310  ad7799.o(.text)
    ADC24Bit_SPI_SendByte                    0x0802078b   Thumb Code    28  ad7799.o(.text)
    SPI_Write                                0x080207a7   Thumb Code    32  ad7799.o(.text)
    AD7799_SetRegisterValue                  0x080207c7   Thumb Code   110  ad7799.o(.text)
    ADC24Bit_SPI_GetByte                     0x08020835   Thumb Code    24  ad7799.o(.text)
    SPI_Read                                 0x0802084d   Thumb Code    32  ad7799.o(.text)
    AD7799_GetRegisterValue                  0x0802086d   Thumb Code   120  ad7799.o(.text)
    AD7799_SetReference                      0x080208e5   Thumb Code    40  ad7799.o(.text)
    AD7799_Calibrate                         0x0802090d   Thumb Code   266  ad7799.o(.text)
    AD7799_Init                              0x08020a17   Thumb Code   174  ad7799.o(.text)
    ADC24Bit_Init                            0x08020ac5   Thumb Code    12  ad7799.o(.text)
    AD7799_Reset                             0x08020ad1   Thumb Code    40  ad7799.o(.text)
    AD7799_Get_ADC_Value                     0x08020af9   Thumb Code    12  ad7799.o(.text)
    ethernetif_input                         0x08020d2d   Thumb Code    42  ethernetif.o(.text)
    ethernetif_init                          0x08020d57   Thumb Code    38  ethernetif.o(.text)
    etharp_tmr                               0x08020ddb   Thumb Code   136  etharp.o(.text)
    etharp_cleanup_netif                     0x080210a9   Thumb Code    52  etharp.o(.text)
    etharp_find_addr                         0x080210dd   Thumb Code    82  etharp.o(.text)
    etharp_request                           0x080212f1   Thumb Code    36  etharp.o(.text)
    etharp_query                             0x0802137d   Thumb Code   338  etharp.o(.text)
    etharp_output                            0x080214cf   Thumb Code   314  etharp.o(.text)
    ethernet_input                           0x08021609   Thumb Code   178  etharp.o(.text)
    icmp_input                               0x080216cd   Thumb Code   340  icmp.o(.text)
    icmp_dest_unreach                        0x08021891   Thumb Code    18  icmp.o(.text)
    icmp_time_exceeded                       0x080218a3   Thumb Code    18  icmp.o(.text)
    inet_chksum_pseudo                       0x0802191b   Thumb Code   162  inet_chksum.o(.text)
    inet_chksum_pseudo_partial               0x080219bd   Thumb Code   184  inet_chksum.o(.text)
    inet_chksum                              0x08021a75   Thumb Code    20  inet_chksum.o(.text)
    inet_chksum_pbuf                         0x08021a89   Thumb Code    86  inet_chksum.o(.text)
    ip_route                                 0x08021ae1   Thumb Code    76  ip.o(.text)
    ip_input                                 0x08021b2d   Thumb Code   422  ip.o(.text)
    ip_output_if                             0x08021cd3   Thumb Code   192  ip.o(.text)
    ip_output                                0x08021d93   Thumb Code    56  ip.o(.text)
    ip4_addr_isbroadcast                     0x08021de9   Thumb Code    78  ip_addr.o(.text)
    ip4_addr_netmask_valid                   0x08021e37   Thumb Code    52  ip_addr.o(.text)
    ipaddr_aton                              0x08021e6b   Thumb Code   348  ip_addr.o(.text)
    ipaddr_addr                              0x08021fc7   Thumb Code    24  ip_addr.o(.text)
    ipaddr_ntoa_r                            0x08021fdf   Thumb Code   168  ip_addr.o(.text)
    ipaddr_ntoa                              0x08022087   Thumb Code    16  ip_addr.o(.text)
    ip_reass_tmr                             0x08022161   Thumb Code    48  ip_frag.o(.text)
    ip_reass                                 0x080223b7   Thumb Code   396  ip_frag.o(.text)
    ip_frag                                  0x0802257f   Thumb Code   424  ip_frag.o(.text)
    lwip_htons                               0x08022731   Thumb Code    12  def.o(.text)
    lwip_ntohs                               0x0802273d   Thumb Code    12  def.o(.text)
    lwip_htonl                               0x08022749   Thumb Code    26  def.o(.text)
    lwip_ntohl                               0x08022763   Thumb Code    12  def.o(.text)
    dhcp_renew                               0x08022c01   Thumb Code   160  dhcp.o(.text)
    dhcp_coarse_tmr                          0x08022d65   Thumb Code    62  dhcp.o(.text)
    dhcp_release                             0x08022e47   Thumb Code   162  dhcp.o(.text)
    dhcp_fine_tmr                            0x08023071   Thumb Code    64  dhcp.o(.text)
    dhcp_set_struct                          0x08023137   Thumb Code    30  dhcp.o(.text)
    dhcp_cleanup                             0x08023155   Thumb Code    24  dhcp.o(.text)
    dhcp_stop                                0x0802316d   Thumb Code    58  dhcp.o(.text)
    dhcp_start                               0x080235b3   Thumb Code   206  dhcp.o(.text)
    dhcp_inform                              0x08023681   Thumb Code   170  dhcp.o(.text)
    dhcp_network_changed                     0x0802372b   Thumb Code    80  dhcp.o(.text)
    dhcp_arp_reply                           0x080237f9   Thumb Code    46  dhcp.o(.text)
    mem_init                                 0x080238b9   Thumb Code    74  mem.o(.text)
    mem_free                                 0x08023903   Thumb Code    68  mem.o(.text)
    mem_trim                                 0x08023947   Thumb Code   288  mem.o(.text)
    mem_malloc                               0x08023a67   Thumb Code   222  mem.o(.text)
    mem_calloc                               0x08023b45   Thumb Code    34  mem.o(.text)
    memp_init                                0x08023b79   Thumb Code    82  memp.o(.text)
    memp_malloc                              0x08023bcb   Thumb Code    40  memp.o(.text)
    memp_free                                0x08023bf3   Thumb Code    28  memp.o(.text)
    netif_init                               0x08023c21   Thumb Code     2  netif.o(.text)
    netif_set_gw                             0x08023c23   Thumb Code    12  netif.o(.text)
    netif_set_netmask                        0x08023c2f   Thumb Code    12  netif.o(.text)
    netif_set_ipaddr                         0x08023c3b   Thumb Code   110  netif.o(.text)
    netif_set_addr                           0x08023ca9   Thumb Code    40  netif.o(.text)
    netif_add                                0x08023cd1   Thumb Code   104  netif.o(.text)
    netif_set_default                        0x08023d39   Thumb Code     6  netif.o(.text)
    netif_set_down                           0x08023d3f   Thumb Code    42  netif.o(.text)
    netif_remove                             0x08023d69   Thumb Code    90  netif.o(.text)
    netif_find                               0x08023dc3   Thumb Code    64  netif.o(.text)
    netif_set_up                             0x08023e03   Thumb Code    54  netif.o(.text)
    netif_set_link_up                        0x08023e39   Thumb Code    80  netif.o(.text)
    netif_set_link_down                      0x08023e89   Thumb Code    42  netif.o(.text)
    netif_set_link_callback                  0x08023eb3   Thumb Code     6  netif.o(.text)
    pbuf_free                                0x08023ecd   Thumb Code   134  pbuf.o(.text)
    pbuf_alloc                               0x08023f53   Thumb Code   408  pbuf.o(.text)
    pbuf_alloced_custom                      0x080240eb   Thumb Code   108  pbuf.o(.text)
    pbuf_realloc                             0x08024157   Thumb Code   120  pbuf.o(.text)
    pbuf_header                              0x080241cf   Thumb Code   126  pbuf.o(.text)
    pbuf_clen                                0x0802424d   Thumb Code    18  pbuf.o(.text)
    pbuf_ref                                 0x0802425f   Thumb Code    10  pbuf.o(.text)
    pbuf_cat                                 0x08024269   Thumb Code    56  pbuf.o(.text)
    pbuf_chain                               0x080242a1   Thumb Code    22  pbuf.o(.text)
    pbuf_dechain                             0x080242b7   Thumb Code    56  pbuf.o(.text)
    pbuf_copy                                0x080242ef   Thumb Code   192  pbuf.o(.text)
    pbuf_copy_partial                        0x080243af   Thumb Code   146  pbuf.o(.text)
    pbuf_take                                0x08024441   Thumb Code   116  pbuf.o(.text)
    pbuf_coalesce                            0x080244b5   Thumb Code    60  pbuf.o(.text)
    pbuf_get_at                              0x080244f1   Thumb Code    46  pbuf.o(.text)
    pbuf_memcmp                              0x0802451f   Thumb Code    96  pbuf.o(.text)
    pbuf_memfind                             0x0802457f   Thumb Code    76  pbuf.o(.text)
    pbuf_strstr                              0x080245cb   Thumb Code    60  pbuf.o(.text)
    raw_input                                0x08024609   Thumb Code   102  raw.o(.text)
    raw_bind                                 0x0802466f   Thumb Code    16  raw.o(.text)
    raw_connect                              0x0802467f   Thumb Code    16  raw.o(.text)
    raw_recv                                 0x0802468f   Thumb Code     6  raw.o(.text)
    raw_sendto                               0x08024695   Thumb Code   158  raw.o(.text)
    raw_send                                 0x08024733   Thumb Code    18  raw.o(.text)
    raw_remove                               0x08024745   Thumb Code    60  raw.o(.text)
    raw_new                                  0x08024781   Thumb Code    42  raw.o(.text)
    tcp_init                                 0x080247b9   Thumb Code     2  tcp.o(.text)
    tcp_seg_free                             0x080247bb   Thumb Code    26  tcp.o(.text)
    tcp_segs_free                            0x080247d5   Thumb Code    24  tcp.o(.text)
    tcp_pcb_purge                            0x080247ed   Thumb Code    64  tcp.o(.text)
    tcp_slowtmr                              0x0802482d   Thumb Code   802  tcp.o(.text)
    tcp_pcb_remove                           0x08024b4f   Thumb Code   140  tcp.o(.text)
    tcp_close                                0x08024db3   Thumb Code    28  tcp.o(.text)
    tcp_update_rcv_ann_wnd                   0x08024dcf   Thumb Code    78  tcp.o(.text)
    tcp_recved                               0x08024e1d   Thumb Code    70  tcp.o(.text)
    tcp_recv_null                            0x08024e63   Thumb Code    46  tcp.o(.text)
    tcp_process_refused_data                 0x08024e91   Thumb Code   140  tcp.o(.text)
    tcp_fasttmr                              0x08024f1d   Thumb Code   110  tcp.o(.text)
    tcp_tmr                                  0x08024f8b   Thumb Code    30  tcp.o(.text)
    tcp_shutdown                             0x08024fa9   Thumb Code    98  tcp.o(.text)
    tcp_abandon                              0x0802500b   Thumb Code   170  tcp.o(.text)
    tcp_abort                                0x080250b5   Thumb Code    14  tcp.o(.text)
    tcp_bind                                 0x08025123   Thumb Code   142  tcp.o(.text)
    tcp_listen_with_backlog                  0x080251b9   Thumb Code   198  tcp.o(.text)
    tcp_eff_send_mss                         0x0802527f   Thumb Code    46  tcp.o(.text)
    tcp_next_iss                             0x080252ad   Thumb Code    20  tcp.o(.text)
    tcp_connect                              0x080252c1   Thumb Code   328  tcp.o(.text)
    tcp_setprio                              0x08025409   Thumb Code     4  tcp.o(.text)
    tcp_alloc                                0x0802548b   Thumb Code   242  tcp.o(.text)
    tcp_new                                  0x0802557d   Thumb Code    10  tcp.o(.text)
    tcp_arg                                  0x08025587   Thumb Code     4  tcp.o(.text)
    tcp_recv                                 0x0802558b   Thumb Code     8  tcp.o(.text)
    tcp_sent                                 0x08025593   Thumb Code     8  tcp.o(.text)
    tcp_err                                  0x0802559b   Thumb Code    10  tcp.o(.text)
    tcp_accept                               0x080255a5   Thumb Code     4  tcp.o(.text)
    tcp_poll                                 0x080255a9   Thumb Code    14  tcp.o(.text)
    tcp_debug_state_str                      0x080255b7   Thumb Code    10  tcp.o(.text)
    tcp_input                                0x080263e5   Thumb Code  1134  tcp_in.o(.text)
    tcp_enqueue_flags                        0x080269a1   Thumb Code   272  tcp_out.o(.text)
    tcp_send_fin                             0x08026ab1   Thumb Code    74  tcp_out.o(.text)
    tcp_write                                0x08026be3   Thumb Code   902  tcp_out.o(.text)
    tcp_send_empty_ack                       0x08026f69   Thumb Code    78  tcp_out.o(.text)
    tcp_output                               0x0802707f   Thumb Code   444  tcp_out.o(.text)
    tcp_rst                                  0x0802723b   Thumb Code   124  tcp_out.o(.text)
    tcp_rexmit_rto                           0x080272b7   Thumb Code    58  tcp_out.o(.text)
    tcp_rexmit                               0x080272f1   Thumb Code    90  tcp_out.o(.text)
    tcp_rexmit_fast                          0x0802734b   Thumb Code   112  tcp_out.o(.text)
    tcp_keepalive                            0x080273bb   Thumb Code    68  tcp_out.o(.text)
    tcp_zero_window_probe                    0x080273ff   Thumb Code   172  tcp_out.o(.text)
    tcp_timer_needed                         0x080274ab   Thumb Code     2  timers.o(.text)
    udp_init                                 0x080274ad   Thumb Code     2  udp.o(.text)
    udp_input                                0x080274ff   Thumb Code   450  udp.o(.text)
    udp_bind                                 0x080276c1   Thumb Code   122  udp.o(.text)
    udp_sendto_if                            0x0802773b   Thumb Code   206  udp.o(.text)
    udp_sendto                               0x08027809   Thumb Code    46  udp.o(.text)
    udp_send                                 0x08027837   Thumb Code    20  udp.o(.text)
    udp_connect                              0x0802784b   Thumb Code   110  udp.o(.text)
    udp_disconnect                           0x080278b9   Thumb Code    16  udp.o(.text)
    udp_recv                                 0x080278c9   Thumb Code     6  udp.o(.text)
    udp_remove                               0x080278cf   Thumb Code    60  udp.o(.text)
    udp_new                                  0x0802790b   Thumb Code    28  udp.o(.text)
    LwIP_Init                                0x0802792d   Thumb Code   164  netconf.o(.text)
    LwIP_Pkt_Handle                          0x080279d1   Thumb Code    10  netconf.o(.text)
    LwIP_Periodic_Handle                     0x080279db   Thumb Code    52  netconf.o(.text)
    ETH_BSP_Config                           0x08027bf7   Thumb Code    38  stm32f4x7_eth_bsp.o(.text)
    Eth_Link_PHYITConfig                     0x08027c1d   Thumb Code    70  stm32f4x7_eth_bsp.o(.text)
    Eth_Link_EXTIConfig                      0x08027c63   Thumb Code   104  stm32f4x7_eth_bsp.o(.text)
    Eth_Link_ITHandler                       0x08027ccb   Thumb Code    48  stm32f4x7_eth_bsp.o(.text)
    ETH_link_callback                        0x08027cfb   Thumb Code   282  stm32f4x7_eth_bsp.o(.text)
    udp_echoserver_receive_callback          0x08027ed5   Thumb Code   174  udp_echoserver.o(.text)
    udp_echoserver_init                      0x08027f83   Thumb Code   162  udp_echoserver.o(.text)
    udp_echoserver_senddata                  0x08028025   Thumb Code    52  udp_echoserver.o(.text)
    __aeabi_memcpy                           0x08028131   Thumb Code    36  memcpya.o(.text)
    __aeabi_memcpy4                          0x08028131   Thumb Code     0  memcpya.o(.text)
    __aeabi_memcpy8                          0x08028131   Thumb Code     0  memcpya.o(.text)
    __aeabi_memset                           0x08028155   Thumb Code    14  memseta.o(.text)
    __aeabi_memset4                          0x08028155   Thumb Code     0  memseta.o(.text)
    __aeabi_memset8                          0x08028155   Thumb Code     0  memseta.o(.text)
    __aeabi_memclr                           0x08028163   Thumb Code     4  memseta.o(.text)
    __aeabi_memclr4                          0x08028163   Thumb Code     0  memseta.o(.text)
    __aeabi_memclr8                          0x08028163   Thumb Code     0  memseta.o(.text)
    _memset$wrapper                          0x08028167   Thumb Code    18  memseta.o(.text)
    strncpy                                  0x08028179   Thumb Code    24  strncpy.o(.text)
    strlen                                   0x08028191   Thumb Code    14  strlen.o(.text)
    memcmp                                   0x0802819f   Thumb Code    26  memcmp.o(.text)
    __aeabi_dadd                             0x080281b9   Thumb Code   322  dadd.o(.text)
    __aeabi_dsub                             0x080282fb   Thumb Code     6  dadd.o(.text)
    __aeabi_drsub                            0x08028301   Thumb Code     6  dadd.o(.text)
    __aeabi_dmul                             0x08028307   Thumb Code   228  dmul.o(.text)
    __aeabi_ui2d                             0x080283eb   Thumb Code    26  dfltui.o(.text)
    __aeabi_d2iz                             0x08028405   Thumb Code    62  dfixi.o(.text)
    __aeabi_d2uiz                            0x08028443   Thumb Code    50  dfixui.o(.text)
    __aeabi_cdrcmple                         0x08028475   Thumb Code    38  cdrcmple.o(.text)
    __aeabi_uldivmod                         0x0802849d   Thumb Code    98  uldiv.o(.text)
    __aeabi_llsl                             0x080284ff   Thumb Code    30  llshl.o(.text)
    _ll_shift_l                              0x080284ff   Thumb Code     0  llshl.o(.text)
    __aeabi_llsr                             0x0802851d   Thumb Code    32  llushr.o(.text)
    _ll_ushift_r                             0x0802851d   Thumb Code     0  llushr.o(.text)
    __aeabi_lasr                             0x0802853d   Thumb Code    36  llsshr.o(.text)
    _ll_sshift_r                             0x0802853d   Thumb Code     0  llsshr.o(.text)
    __I$use$fp                               0x08028561   Thumb Code     0  iusefp.o(.text)
    _double_round                            0x08028561   Thumb Code    26  depilogue.o(.text)
    _double_epilogue                         0x0802857b   Thumb Code   164  depilogue.o(.text)
    __decompress                             0x0802861f   Thumb Code     0  __dczerorl2.o(.text)
    __decompress1                            0x0802861f   Thumb Code    92  __dczerorl2.o(.text)
    __0printf$8                              0x0802867d   Thumb Code    22  printf8.o(i.__0printf$8)
    __1printf$8                              0x0802867d   Thumb Code     0  printf8.o(i.__0printf$8)
    __2printf                                0x0802867d   Thumb Code     0  printf8.o(i.__0printf$8)
    __0sprintf$8                             0x0802869d   Thumb Code    34  printf8.o(i.__0sprintf$8)
    __1sprintf$8                             0x0802869d   Thumb Code     0  printf8.o(i.__0sprintf$8)
    __2sprintf                               0x0802869d   Thumb Code     0  printf8.o(i.__0sprintf$8)
    softver_edtion                           0x08028bec   Data           6  processscope.o(.constdata)
    FSMC_DefaultTimingStruct                 0x08029a28   Data          28  stm32f4xx_fsmc.o(.constdata)
    COM_USART                                0x08029a44   Data          12  scope_eval.o(.constdata)
    COM_USART_CLK                            0x08029a50   Data          12  scope_eval.o(.constdata)
    COM_ET_IRQn                              0x08029a5c   Data           6  scope_eval.o(.constdata)
    COM_TX_PORT                              0x08029a64   Data          12  scope_eval.o(.constdata)
    COM_TX_PIN                               0x08029a70   Data           6  scope_eval.o(.constdata)
    COM_TX_PORT_CLK                          0x08029a78   Data          12  scope_eval.o(.constdata)
    COM_RX_PORT                              0x08029a84   Data          12  scope_eval.o(.constdata)
    COM_RX_PIN                               0x08029a90   Data           6  scope_eval.o(.constdata)
    COM_RX_PORT_CLK                          0x08029a98   Data          12  scope_eval.o(.constdata)
    COM_AF_TX_PINSOURCE                      0x08029aa4   Data           3  scope_eval.o(.constdata)
    COM_AF_RX_PINSOURCE                      0x08029aa7   Data           3  scope_eval.o(.constdata)
    COM_AF_UART                              0x08029aaa   Data           3  scope_eval.o(.constdata)
    OUT_PORT                                 0x08029ab0   Data          28  scope_eval.o(.constdata)
    OUT_PIN                                  0x08029acc   Data          14  scope_eval.o(.constdata)
    OUT_CLK                                  0x08029adc   Data          28  scope_eval.o(.constdata)
    IN_PORT                                  0x08029af8   Data          28  scope_eval.o(.constdata)
    IN_PIN                                   0x08029b14   Data          14  scope_eval.o(.constdata)
    IN_CLK                                   0x08029b24   Data          28  scope_eval.o(.constdata)
    IN_ET_LINE                               0x08029b40   Data          14  scope_eval.o(.constdata)
    IN_ET_PORT                               0x08029b4e   Data          14  scope_eval.o(.constdata)
    IN_ET_PIN                                0x08029b5c   Data          14  scope_eval.o(.constdata)
    IN_ET_IRQn                               0x08029b6a   Data          14  scope_eval.o(.constdata)
    g_Turn_Motor_Table                       0x08029b88   Data          16  driver.o(.constdata)
    ethbroadcast                             0x08029b98   Data           6  etharp.o(.constdata)
    ethzero                                  0x08029b9e   Data           6  etharp.o(.constdata)
    ip_addr_any                              0x08029ba4   Data           4  ip_addr.o(.constdata)
    ip_addr_broadcast                        0x08029ba8   Data           4  ip_addr.o(.constdata)
    tcp_state_str                            0x08029bd0   Data          44  tcp.o(.constdata)
    tcp_backoff                              0x08029bfc   Data          13  tcp.o(.constdata)
    tcp_persist_backoff                      0x08029c09   Data           7  tcp.o(.constdata)
    tcp_pcb_lists                            0x08029c10   Data          16  tcp.o(.constdata)
    SystemCoreClock                          0x20000000   Data           4  system_stm32f4xx.o(.data)
    AHBPrescTable                            0x20000004   Data          16  system_stm32f4xx.o(.data)
    g_tOCLevel                               0x20000014   Data           4  systemscope.o(.data)
    g_tSystemStatus                          0x20000018   Data           3  systemscope.o(.data)
    g_atInterval                             0x2000001c   Data           8  systemscope.o(.data)
    g_nError                                 0x20000024   Data           4  systemscope.o(.data)
    g_nFlag                                  0x20000028   Data           4  systemscope.o(.data)
    g_Test_Mode                              0x2000002c   Data           1  processscope.o(.data)
    g_Micro_Switch                           0x2000002d   Data           1  processscope.o(.data)
    g_Udp_Count                              0x20000034   Data           4  processscope.o(.data)
    g_Frame_Count                            0x20000038   Data           4  processscope.o(.data)
    g_Send_Fail                              0x2000003c   Data           4  processscope.o(.data)
    g_AirLight_Flag                          0x20000040   Data           1  processscope.o(.data)
    g_Debug_Data                             0x20000044   Data         512  interfacescope.o(.data)
    DMATxDescToSet                           0x20000260   Data           4  stm32f4x7_eth.o(.data)
    DMARxDescToGet                           0x20000264   Data           4  stm32f4x7_eth.o(.data)
    DMA_RX_FRAME_infos                       0x20000268   Data           4  stm32f4x7_eth.o(.data)
    Frame_Rx_index                           0x2000026c   Data           4  stm32f4x7_eth.o(.data)
    g_Elec_Status                            0x200002ac   Data           1  driver.o(.data)
    current_netif                            0x200002b0   Data           4  ip.o(.data)
    current_header                           0x200002b4   Data           4  ip.o(.data)
    current_iphdr_src                        0x200002b8   Data           4  ip.o(.data)
    current_iphdr_dest                       0x200002bc   Data           4  ip.o(.data)
    netif_list                               0x200002dc   Data           4  netif.o(.data)
    netif_default                            0x200002e0   Data           4  netif.o(.data)
    tcp_ticks                                0x200002f4   Data           4  tcp.o(.data)
    tcp_bound_pcbs                           0x200002f8   Data           4  tcp.o(.data)
    tcp_listen_pcbs                          0x200002fc   Data           4  tcp.o(.data)
    tcp_active_pcbs                          0x20000300   Data           4  tcp.o(.data)
    tcp_tw_pcbs                              0x20000304   Data           4  tcp.o(.data)
    tcp_tmp_pcb                              0x20000308   Data           4  tcp.o(.data)
    tcp_active_pcbs_changed                  0x2000030c   Data           1  tcp.o(.data)
    tcp_input_pcb                            0x2000032c   Data           4  tcp_in.o(.data)
    udp_pcbs                                 0x20000334   Data           4  udp.o(.data)
    TCPTimer                                 0x20000338   Data           4  netconf.o(.data)
    ARPTimer                                 0x2000033c   Data           4  netconf.o(.data)
    IPaddress                                0x20000340   Data           4  netconf.o(.data)
    EthStatus                                0x20000344   Data           4  stm32f4x7_eth_bsp.o(.data)
    s_tAddr                                  0x20000348   Data           4  udp_echoserver.o(.data)
    s_nPort                                  0x2000034c   Data           2  udp_echoserver.o(.data)
    s_ptUpcb                                 0x20000350   Data           4  udp_echoserver.o(.data)
    __stdout                                 0x20000354   Data           4  stdout.o(.data)
    g_tAxisPosStatus                         0x20000358   Data          28  systemscope.o(.bss)
    g_tSystemPara                            0x20000374   Data          54  systemscope.o(.bss)
    g_nErrorParaSet                          0x200003aa   Data          64  systemscope.o(.bss)
    ADC1_Status                              0x200003ec   Data          12  processscope.o(.bss)
    g_ADC1_Buffer                            0x200003f8   Data         512  processscope.o(.bss)
    ADC2_Status                              0x200005f8   Data          12  processscope.o(.bss)
    g_ADC2_Buffer                            0x20000604   Data         512  processscope.o(.bss)
    g_CRP_Data                               0x20000804   Data        1032  processscope.o(.bss)
    g_NET_achCmdRvBuf                        0x20000c0c   Data         256  protocol.o(.bss)
    g_achFbkSdBuf                            0x20000d0c   Data        1500  protocol.o(.bss)
    g_achFbkSdLogBuf                         0x200012e8   Data        1500  protocol.o(.bss)
    g_SPG_achCmdRvBuf                        0x2000247c   Data          80  samplingport.o(.bss)
    g_Record_Param                           0x200024cc   Data          28  storagemanagement.o(.bss)
    DMARxDscrTab                             0x200024e8   Data         256  stm32f4x7_eth.o(.bss)
    DMATxDscrTab                             0x200025e8   Data         256  stm32f4x7_eth.o(.bss)
    Rx_Buff                                  0x200026e8   Data       12192  stm32f4x7_eth.o(.bss)
    Tx_Buff                                  0x20005688   Data       12192  stm32f4x7_eth.o(.bss)
    RX_Frame_Descriptor                      0x20008628   Data          12  stm32f4x7_eth.o(.bss)
    g_atMotorStatus                          0x20008634   Data          16  scope_move.o(.bss)
    g_atMotorPara                            0x20008644   Data          32  scope_move.o(.bss)
    dhcp_rx_options_val                      0x20009e48   Data          40  dhcp.o(.bss)
    dhcp_rx_options_given                    0x20009e70   Data          10  dhcp.o(.bss)
    ram_heap                                 0x20009e7a   Data       10260  mem.o(.bss)
    gnetif                                   0x200112a8   Data          56  netconf.o(.bss)
    ETH_InitStructure                        0x200112e0   Data         188  stm32f4x7_eth_bsp.o(.bss)
    __initial_sp                             0x200153a0   Data           0  startup_stm32f40_41xxx.o(STACK)



==============================================================================

Memory Map of the image

  Image Entry point : 0x08000189

  Load Region LR_IROM1 (Base: 0x08000000, Size: 0x00000558, Max: 0x00003fff, ABSOLUTE, COMPRESSED[0x000002c8])

    Execution Region ER_IROM1 (Base: 0x08000000, Size: 0x00000200, Max: 0x00003fff, ABSOLUTE)

    Base Addr    Size         Type   Attr      Idx    E Section Name        Object

    0x08000000   0x00000188   Data   RO          291    RESET               startup_stm32f40_41xxx.o
    0x08000188   0x00000000   Code   RO         2121  * .ARM.Collect$$$$00000000  mc_w.l(entry.o)
    0x08000188   0x00000004   Code   RO         2409    .ARM.Collect$$$$00000001  mc_w.l(entry2.o)
    0x0800018c   0x00000004   Code   RO         2412    .ARM.Collect$$$$00000004  mc_w.l(entry5.o)
    0x08000190   0x00000000   Code   RO         2414    .ARM.Collect$$$$00000008  mc_w.l(entry7b.o)
    0x08000190   0x00000000   Code   RO         2416    .ARM.Collect$$$$0000000A  mc_w.l(entry8b.o)
    0x08000190   0x00000008   Code   RO         2417    .ARM.Collect$$$$0000000B  mc_w.l(entry9a.o)
    0x08000198   0x00000000   Code   RO         2419    .ARM.Collect$$$$0000000D  mc_w.l(entry10a.o)
    0x08000198   0x00000000   Code   RO         2421    .ARM.Collect$$$$0000000F  mc_w.l(entry11a.o)
    0x08000198   0x00000004   Code   RO         2410    .ARM.Collect$$$$00002712  mc_w.l(entry2.o)
    0x0800019c   0x00000024   Code   RO         2441    .text               mc_w.l(init.o)
    0x080001c0   0x0000000e   Code   RO         2445    i.__scatterload_copy  mc_w.l(handlers.o)
    0x080001ce   0x00000002   Code   RO         2446    i.__scatterload_null  mc_w.l(handlers.o)
    0x080001d0   0x0000000e   Code   RO         2447    i.__scatterload_zeroinit  mc_w.l(handlers.o)
    0x080001de   0x00000002   PAD
    0x080001e0   0x00000020   Data   RO         2443    Region$$Table       anon$$obj.o


    Execution Region RW_IRAM1 (Base: 0x20000000, Size: 0x000153a0, Max: 0x00020000, ABSOLUTE, COMPRESSED[0x000000c8])

    Base Addr    Size         Type   Attr      Idx    E Section Name        Object

    0x20000000   0x00000014   Data   RW          266    .data               system_stm32f4xx.o
    0x20000014   0x00000018   Data   RW          301    .data               systemscope.o
    0x2000002c   0x00000015   Data   RW          329    .data               processscope.o
    0x20000041   0x00000002   Data   RW          359    .data               protocol.o
    0x20000043   0x00000001   PAD
    0x20000044   0x00000212   Data   RW          391    .data               interfacescope.o
    0x20000256   0x0000000a   Data   RW          419    .data               samplingport.o
    0x20000260   0x00000010   Data   RW          472    .data               stm32f4x7_eth.o
    0x20000270   0x00000010   Data   RW         1027    .data               stm32f4xx_rcc.o
    0x20000280   0x00000014   Data   RW         1232    .data               scope_it.o
    0x20000294   0x00000008   Data   RW         1309    .data               buffercircle.o
    0x2000029c   0x00000008   Data   RW         1332    .data               netbuffercircle.o
    0x200002a4   0x00000008   Data   RW         1355    .data               samplebuffercircle.o
    0x200002ac   0x00000001   Data   RW         1405    .data               driver.o
    0x200002ad   0x00000001   Data   RW         1517    .data               etharp.o
    0x200002ae   0x00000002   PAD
    0x200002b0   0x00000012   Data   RW         1632    .data               ip.o
    0x200002c2   0x00000002   PAD
    0x200002c4   0x00000006   Data   RW         1692    .data               ip_frag.o
    0x200002ca   0x00000002   PAD
    0x200002cc   0x00000004   Data   RW         1722    .data               dhcp.o
    0x200002d0   0x0000000c   Data   RW         1780    .data               mem.o
    0x200002dc   0x00000009   Data   RW         1822    .data               netif.o
    0x200002e5   0x00000003   PAD
    0x200002e8   0x00000004   Data   RW         1856    .data               raw.o
    0x200002ec   0x00000023   Data   RW         1884    .data               tcp.o
    0x2000030f   0x00000001   PAD
    0x20000310   0x00000020   Data   RW         1907    .data               tcp_in.o
    0x20000330   0x00000008   Data   RW         1953    .data               udp.o
    0x20000338   0x0000000c   Data   RW         2036    .data               netconf.o
    0x20000344   0x00000004   Data   RW         2061    .data               stm32f4x7_eth_bsp.o
    0x20000348   0x0000000c   Data   RW         2094    .data               udp_echoserver.o
    0x20000354   0x00000004   Data   RW         2423    .data               mc_w.l(stdout.o)
    0x20000358   0x00000092   Zero   RW          299    .bss                systemscope.o
    0x200003ea   0x00000002   PAD
    0x200003ec   0x00000820   Zero   RW          327    .bss                processscope.o
    0x20000c0c   0x00000cb8   Zero   RW          358    .bss                protocol.o
    0x200018c4   0x00000bb8   Zero   RW          389    .bss                interfacescope.o
    0x2000247c   0x00000050   Zero   RW          418    .bss                samplingport.o
    0x200024cc   0x0000001c   Zero   RW          445    .bss                storagemanagement.o
    0x200024e8   0x0000614c   Zero   RW          471    .bss                stm32f4x7_eth.o
    0x20008634   0x00000030   Zero   RW         1281    .bss                scope_move.o
    0x20008664   0x000009c4   Zero   RW         1308    .bss                buffercircle.o
    0x20009028   0x00000c80   Zero   RW         1331    .bss                netbuffercircle.o
    0x20009ca8   0x000000c8   Zero   RW         1354    .bss                samplebuffercircle.o
    0x20009d70   0x000000c8   Zero   RW         1515    .bss                etharp.o
    0x20009e38   0x00000010   Zero   RW         1669    .bss                ip_addr.o
    0x20009e48   0x00000032   Zero   RW         1721    .bss                dhcp.o
    0x20009e7a   0x00002814   Zero   RW         1779    .bss                mem.o
    0x2000c68e   0x00000002   PAD
    0x2000c690   0x00004c07   Zero   RW         1795    .bss                memp.o
    0x20011297   0x00000001   PAD
    0x20011298   0x00000010   Zero   RW         1906    .bss                tcp_in.o
    0x200112a8   0x00000038   Zero   RW         2035    .bss                netconf.o
    0x200112e0   0x000000bc   Zero   RW         2060    .bss                stm32f4x7_eth_bsp.o
    0x2001139c   0x00000004   PAD
    0x200113a0   0x00004000   Zero   RW          289    STACK               startup_stm32f40_41xxx.o



  Load Region LR_IROM2 (Base: 0x08008000, Size: 0x00021cd4, Max: 0x0003ffff, ABSOLUTE)

    Execution Region ER_IROM2 (Base: 0x08008000, Size: 0x00021cd4, Max: 0x0003ffff, ABSOLUTE)

    Base Addr    Size         Type   Attr      Idx    E Section Name        Object

    0x08008000   0x000001e0   Code   RO            3    .text               scopemain.o
    0x080081e0   0x000002cc   Code   RO          265    .text               system_stm32f4xx.o
    0x080084ac   0x00000024   Code   RO          292    .text               startup_stm32f40_41xxx.o
    0x080084d0   0x000001d4   Code   RO          298    .text               systemscope.o
    0x080086a4   0x00005374   Code   RO          326    .text               processscope.o
    0x0800da18   0x0000049c   Code   RO          357    .text               protocol.o
    0x0800deb4   0x00001b94   Code   RO          388    .text               interfacescope.o
    0x0800fa48   0x00000364   Code   RO          417    .text               samplingport.o
    0x0800fdac   0x00000190   Code   RO          444    .text               storagemanagement.o
    0x0800ff3c   0x00001e30   Code   RO          470    .text               stm32f4x7_eth.o
    0x08011d6c   0x000001dc   Code   RO          494    .text               misc.o
    0x08011f48   0x00001070   Code   RO          534    .text               stm32f4xx_adc.o
    0x08012fb8   0x000005f8   Code   RO          674    .text               stm32f4xx_dac.o
    0x080135b0   0x000013a4   Code   RO          757    .text               stm32f4xx_dma.o
    0x08014954   0x000002f8   Code   RO          777    .text               stm32f4xx_exti.o
    0x08014c4c   0x00000a94   Code   RO          797    .text               stm32f4xx_flash.o
    0x080156e0   0x00000e48   Code   RO          840    .text               stm32f4xx_fsmc.o
    0x08016528   0x00000a10   Code   RO          863    .text               stm32f4xx_gpio.o
    0x08016f38   0x00000f60   Code   RO         1026    .text               stm32f4xx_rcc.o
    0x08017e98   0x00000dd0   Code   RO         1131    .text               stm32f4xx_spi.o
    0x08018c68   0x0000019c   Code   RO         1151    .text               stm32f4xx_syscfg.o
    0x08018e04   0x00003284   Code   RO         1171    .text               stm32f4xx_tim.o
    0x0801c088   0x0000115c   Code   RO         1191    .text               stm32f4xx_usart.o
    0x0801d1e4   0x00000378   Code   RO         1211    .text               fpga.o
    0x0801d55c   0x00000274   Code   RO         1231    .text               scope_it.o
    0x0801d7d0   0x000004bc   Code   RO         1253    .text               scope_eval.o
    0x0801dc8c   0x000003ec   Code   RO         1280    .text               scope_move.o
    0x0801e078   0x000003b8   Code   RO         1307    .text               buffercircle.o
    0x0801e430   0x000003b8   Code   RO         1330    .text               netbuffercircle.o
    0x0801e7e8   0x0000038c   Code   RO         1353    .text               samplebuffercircle.o
    0x0801eb74   0x00001ae0   Code   RO         1402    .text               driver.o
    0x08020654   0x000004bc   Code   RO         1454    .text               ad7799.o
    0x08020b10   0x00000290   Code   RO         1474    .text               ethernetif.o
    0x08020da0   0x0000092c   Code   RO         1514    .text               etharp.o
    0x080216cc   0x000001f0   Code   RO         1573    .text               icmp.o
    0x080218bc   0x00000222   Code   RO         1613    .text               inet_chksum.o
    0x08021ade   0x00000002   PAD
    0x08021ae0   0x00000308   Code   RO         1631    .text               ip.o
    0x08021de8   0x000002b4   Code   RO         1668    .text               ip_addr.o
    0x0802209c   0x00000694   Code   RO         1691    .text               ip_frag.o
    0x08022730   0x0000003e   Code   RO         1708    .text               def.o
    0x0802276e   0x00000002   PAD
    0x08022770   0x000010cc   Code   RO         1720    .text               dhcp.o
    0x0802383c   0x0000033c   Code   RO         1778    .text               mem.o
    0x08023b78   0x000000a8   Code   RO         1794    .text               memp.o
    0x08023c20   0x000002ac   Code   RO         1821    .text               netif.o
    0x08023ecc   0x0000073a   Code   RO         1843    .text               pbuf.o
    0x08024606   0x00000002   PAD
    0x08024608   0x000001b0   Code   RO         1855    .text               raw.o
    0x080247b8   0x00000e18   Code   RO         1881    .text               tcp.o
    0x080255d0   0x000012ac   Code   RO         1905    .text               tcp_in.o
    0x0802687c   0x00000c2e   Code   RO         1928    .text               tcp_out.o
    0x080274aa   0x00000002   Code   RO         1940    .text               timers.o
    0x080274ac   0x00000480   Code   RO         1952    .text               udp.o
    0x0802792c   0x00000170   Code   RO         2034    .text               netconf.o
    0x08027a9c   0x00000438   Code   RO         2059    .text               stm32f4x7_eth_bsp.o
    0x08027ed4   0x0000025c   Code   RO         2092    .text               udp_echoserver.o
    0x08028130   0x00000024   Code   RO         2124    .text               mc_w.l(memcpya.o)
    0x08028154   0x00000024   Code   RO         2126    .text               mc_w.l(memseta.o)
    0x08028178   0x00000018   Code   RO         2128    .text               mc_w.l(strncpy.o)
    0x08028190   0x0000000e   Code   RO         2130    .text               mc_w.l(strlen.o)
    0x0802819e   0x0000001a   Code   RO         2132    .text               mc_w.l(memcmp.o)
    0x080281b8   0x0000014e   Code   RO         2397    .text               mf_w.l(dadd.o)
    0x08028306   0x000000e4   Code   RO         2399    .text               mf_w.l(dmul.o)
    0x080283ea   0x0000001a   Code   RO         2401    .text               mf_w.l(dfltui.o)
    0x08028404   0x0000003e   Code   RO         2403    .text               mf_w.l(dfixi.o)
    0x08028442   0x00000032   Code   RO         2405    .text               mf_w.l(dfixui.o)
    0x08028474   0x00000028   Code   RO         2407    .text               mf_w.l(cdrcmple.o)
    0x0802849c   0x00000062   Code   RO         2426    .text               mc_w.l(uldiv.o)
    0x080284fe   0x0000001e   Code   RO         2428    .text               mc_w.l(llshl.o)
    0x0802851c   0x00000020   Code   RO         2430    .text               mc_w.l(llushr.o)
    0x0802853c   0x00000024   Code   RO         2432    .text               mc_w.l(llsshr.o)
    0x08028560   0x00000000   Code   RO         2434    .text               mc_w.l(iusefp.o)
    0x08028560   0x000000be   Code   RO         2435    .text               mf_w.l(depilogue.o)
    0x0802861e   0x0000005c   Code   RO         2451    .text               mc_w.l(__dczerorl2.o)
    0x0802867a   0x00000002   PAD
    0x0802867c   0x00000020   Code   RO         2343    i.__0printf$8       mc_w.l(printf8.o)
    0x0802869c   0x00000028   Code   RO         2345    i.__0sprintf$8      mc_w.l(printf8.o)
    0x080286c4   0x00000408   Code   RO         2350    i._printf_core      mc_w.l(printf8.o)
    0x08028acc   0x00000026   Code   RO         2351    i._printf_post_padding  mc_w.l(printf8.o)
    0x08028af2   0x00000030   Code   RO         2352    i._printf_pre_padding  mc_w.l(printf8.o)
    0x08028b22   0x0000000a   Code   RO         2354    i._sputc            mc_w.l(printf8.o)
    0x08028b2c   0x000000c0   Data   RO          300    .constdata          systemscope.o
    0x08028bec   0x00000da4   Data   RO          328    .constdata          processscope.o
    0x08029990   0x00000098   Data   RO          390    .constdata          interfacescope.o
    0x08029a28   0x0000001c   Data   RO          841    .constdata          stm32f4xx_fsmc.o
    0x08029a44   0x00000134   Data   RO         1254    .constdata          scope_eval.o
    0x08029b78   0x00000010   Data   RO         1282    .constdata          scope_move.o
    0x08029b88   0x00000010   Data   RO         1404    .constdata          driver.o
    0x08029b98   0x0000000c   Data   RO         1516    .constdata          etharp.o
    0x08029ba4   0x00000008   Data   RO         1670    .constdata          ip_addr.o
    0x08029bac   0x00000024   Data   RO         1796    .constdata          memp.o
    0x08029bd0   0x00000050   Data   RO         1882    .constdata          tcp.o
    0x08029c20   0x0000004b   Data   RO         2093    .constdata          udp_echoserver.o
    0x08029c6b   0x00000068   Data   RO         1883    .conststring        tcp.o


==============================================================================

Image component sizes


      Code (inc. data)   RO Data    RW Data    ZI Data      Debug   Object Name

      1212         64          0          0          0       3671   ad7799.o
       952         16          0          8       2500       4382   buffercircle.o
        62          0          0          0          0       1174   def.o
      4300         80          0          4         50      12570   dhcp.o
      6880        676         16          1          0      17141   driver.o
      2348         22         12          1        200      15877   etharp.o
       656         36          0          0          0       7755   ethernetif.o
       888         18          0          0          0       2691   fpga.o
       496          8          0          0          0       3342   icmp.o
         0          0          0          0          0       3768   inet.o
       546          0          0          0          0       2897   inet_chksum.o
      7060        522        152        530       3000      46920   interfacescope.o
       776         30          0         18          0      15476   ip.o
       692         12          8          0         16       9151   ip_addr.o
      1684         18          0          6          0       6988   ip_frag.o
       828         18          0         12      10260       3822   mem.o
       168         18         36          0      19463       2322   memp.o
       476         56          0          0          0       1889   misc.o
       952         16          0          8       3200       4704   netbuffercircle.o
       368        142          0         12         56       1806   netconf.o
       684         20          0          9          0       6449   netif.o
      1850          0          0          0          0       8809   pbuf.o
     21364       4788       3492         21       2080      30690   processscope.o
      1180         58          0          2       3256       8231   protocol.o
       432         14          0          4          0       3237   raw.o
       908         16          0          8        200       4414   samplebuffercircle.o
       868         32          0         10         80       6189   samplingport.o
      1212        252        308          0          0      31198   scope_eval.o
       628         68          0         20          0       3268   scope_it.o
      1004         18         16          0         48       4407   scope_move.o
       480        218          0          0          0     412857   scopemain.o
        36          8        392          0      16384        796   startup_stm32f40_41xxx.o
      7728        216          0         16      24908      23289   stm32f4x7_eth.o
      1080        192          0          4        188       4649   stm32f4x7_eth_bsp.o
      4208        130          0          0          0      12554   stm32f4xx_adc.o
      1528         48          0          0          0       5381   stm32f4xx_dac.o
      5028        330          0          0          0       8513   stm32f4xx_dma.o
       760         50          0          0          0       2551   stm32f4xx_exti.o
      2708         82          0          0          0       9918   stm32f4xx_flash.o
      3656        130         28          0          0       7038   stm32f4xx_fsmc.o
      2576        178          0          0          0       5213   stm32f4xx_gpio.o
      3936        252          0         16          0      15056   stm32f4xx_rcc.o
      3536        168          0          0          0       8333   stm32f4xx_spi.o
       412         62          0          0          0       1961   stm32f4xx_syscfg.o
     12932        652          0          0          0      29104   stm32f4xx_tim.o
      4444        228          0          0          0       9852   stm32f4xx_usart.o
       400         46          0          0         28       3932   storagemanagement.o
       716         50          0         20          0       1968   system_stm32f4xx.o
       468         46        192         24        146       5669   systemscope.o
      3608        138        184         35          0      21203   tcp.o
      4780        232          0         32         16      14487   tcp_in.o
      3118          8          0          0          0       9307   tcp_out.o
         2          0          0          0          0        435   timers.o
      1152         22          0          8          0      13765   udp.o
       604        216         75         12          0       2217   udp_echoserver.o

    ----------------------------------------------------------------------
    131376      10720       4944        852      86088     905286   Object Totals
         0          0         32          0          0          0   (incl. Generated)
         6          0          1         11          9          0   (incl. Padding)

    ----------------------------------------------------------------------

      Code (inc. data)   RO Data    RW Data    ZI Data      Debug   Library Member Name

        92          0          0          0          0          0   __dczerorl2.o
         0          0          0          0          0          0   entry.o
         0          0          0          0          0          0   entry10a.o
         0          0          0          0          0          0   entry11a.o
         8          4          0          0          0          0   entry2.o
         4          0          0          0          0          0   entry5.o
         0          0          0          0          0          0   entry7b.o
         0          0          0          0          0          0   entry8b.o
         8          4          0          0          0          0   entry9a.o
        30          0          0          0          0          0   handlers.o
        36          8          0          0          0         68   init.o
         0          0          0          0          0          0   iusefp.o
        30          0          0          0          0         68   llshl.o
        36          0          0          0          0         68   llsshr.o
        32          0          0          0          0         68   llushr.o
        26          0          0          0          0         80   memcmp.o
        36          0          0          0          0         68   memcpya.o
        36          0          0          0          0        108   memseta.o
      1200         60          0          0          0        504   printf8.o
         0          0          0          4          0          0   stdout.o
        14          0          0          0          0         68   strlen.o
        24          0          0          0          0         76   strncpy.o
        98          0          0          0          0         92   uldiv.o
        40          2          0          0          0         68   cdrcmple.o
       334          0          0          0          0        148   dadd.o
       190          0          0          0          0        176   depilogue.o
        62          0          0          0          0         80   dfixi.o
        50          0          0          0          0         76   dfixui.o
        26          0          0          0          0         76   dfltui.o
       228          0          0          0          0         96   dmul.o

    ----------------------------------------------------------------------
      2644         78          0          4          0       1988   Library Totals
         4          0          0          0          0          0   (incl. Padding)

    ----------------------------------------------------------------------

      Code (inc. data)   RO Data    RW Data    ZI Data      Debug   Library Name

      1710         76          0          4          0       1268   mc_w.l
       930          2          0          0          0        720   mf_w.l

    ----------------------------------------------------------------------
      2644         78          0          4          0       1988   Library Totals

    ----------------------------------------------------------------------

==============================================================================


      Code (inc. data)   RO Data    RW Data    ZI Data      Debug   

    134020      10798       4944        856      86088     893634   Grand Totals
    134020      10798       4944        200      86088     893634   ELF Image Totals (compressed)
    134020      10798       4944        200          0          0   ROM Totals

==============================================================================

    Total RO  Size (Code + RO Data)               138964 ( 135.71kB)
    Total RW  Size (RW Data + ZI Data)             86944 (  84.91kB)
    Total ROM Size (Code + RO Data + RW Data)     139164 ( 135.90kB)

==============================================================================

